

Microchip MPLAB XC8 Assembler V2.20 build 20200408173844 
                                                                                               Tue Jul 21 02:03:17 2020

Microchip MPLAB XC8 C Compiler v2.20 (Free license) build 20200408173844 Og1 
     1                           	processor	16F877A
     2                           	pagewidth 120
     3                           	opt	flic
     4                           	psect	strings,global,class=STRING,delta=2,noexec
     5                           	psect	cinit,global,class=CODE,merge=1,delta=2
     6                           	psect	bssBANK0,global,class=BANK0,space=1,delta=1,noexec
     7                           	psect	clrtext,global,class=CODE,delta=2
     8                           	psect	cstackBANK1,global,class=BANK1,space=1,delta=1,noexec
     9                           	psect	cstackCOMMON,global,class=COMMON,space=1,delta=1,noexec
    10                           	psect	cstackBANK0,global,class=BANK0,space=1,delta=1,noexec
    11                           	psect	maintext,global,class=CODE,split=1,delta=2
    12                           	psect	text1,local,class=CODE,merge=1,delta=2
    13                           	psect	text2,local,class=CODE,merge=1,delta=2
    14                           	psect	text3,local,class=CODE,merge=1,delta=2
    15                           	psect	text4,local,class=CODE,merge=1,delta=2,group=1
    16                           	psect	text5,local,class=CODE,merge=1,delta=2
    17                           	psect	text6,local,class=CODE,merge=1,delta=2
    18                           	psect	text7,local,class=CODE,merge=1,delta=2
    19                           	psect	text8,local,class=CODE,merge=1,delta=2
    20                           	psect	text9,local,class=CODE,merge=1,delta=2,group=2
    21                           	psect	text10,local,class=CODE,merge=1,delta=2
    22                           	psect	intentry,global,class=CODE,delta=2
    23                           	psect	text11,local,class=CODE,merge=1,delta=2
    24                           	psect	text12,local,class=CODE,merge=1,delta=2
    25                           	psect	text13,local,class=CODE,merge=1,delta=2
    26                           	psect	text14,local,class=CODE,merge=1,delta=2,group=1
    27                           	psect	text15,local,class=CODE,merge=1,delta=2,group=1
    28                           	psect	text16,local,class=CODE,merge=1,delta=2
    29                           	psect	functab,global,class=ENTRY,delta=2
    30                           	psect	config,global,abs,ovrld,class=CONFIG,space=4,delta=2,noexec
    31                           	dabs	1,0x7E,2
    32  0000                     
    33                           ; Version 2.20
    34                           ; Generated 12/02/2020 GMT
    35                           ; 
    36                           ; Copyright © 2020, Microchip Technology Inc. and its subsidiaries ("Microchip")
    37                           ; All rights reserved.
    38                           ; 
    39                           ; This software is developed by Microchip Technology Inc. and its subsidiaries ("Microch
      +                          ip").
    40                           ; 
    41                           ; Redistribution and use in source and binary forms, with or without modification, are
    42                           ; permitted provided that the following conditions are met:
    43                           ; 
    44                           ;     1. Redistributions of source code must retain the above copyright notice, this lis
      +                          t of
    45                           ;        conditions and the following disclaimer.
    46                           ; 
    47                           ;     2. Redistributions in binary form must reproduce the above copyright notice, this 
      +                          list
    48                           ;        of conditions and the following disclaimer in the documentation and/or other
    49                           ;        materials provided with the distribution.
    50                           ; 
    51                           ;     3. Microchip's name may not be used to endorse or promote products derived from th
      +                          is
    52                           ;        software without specific prior written permission.
    53                           ; 
    54                           ; THIS SOFTWARE IS PROVIDED BY MICROCHIP "AS IS" AND ANY EXPRESS OR IMPLIED WARRANTIES,
    55                           ; INCLUDING, BUT NOT LIMITED TO, THE IMPLIED WARRANTIES OF MERCHANTABILITY AND FITNESS F
      +                          OR
    56                           ; PURPOSE ARE DISCLAIMED.  IN NO EVENT SHALL MICROCHIP BE LIABLE FOR ANY DIRECT, INDIREC
      +                          T,
    57                           ; INCIDENTAL, SPECIAL, EXEMPLARY, OR CONSEQUENTIAL DAMAGES (INCLUDING BUT NOT LIMITED TO
    58                           ; PROCUREMENT OF SUBSTITUTE GOODS OR SERVICES; LOSS OF USE, DATA OR PROFITS; OR BUSINESS
    59                           ; INTERRUPTION) HOWSOEVER CAUSED AND ON ANY THEORY OF LIABILITY, WHETHER IN CONTRACT, ST
      +                          RICT
    60                           ; LIABILITY, OR TORT (INCLUDING NEGLIGENCE OR OTHERWISE) ARISING IN ANY WAY OUT OF THE U
      +                          SE OF
    61                           ; THIS SOFTWARE, EVEN IF ADVISED OF THE POSSIBILITY OF SUCH DAMAGE.
    62                           ; 
    63                           ; 
    64                           ; Code-generator required, PIC16F877A Definitions
    65                           ; 
    66                           ; SFR Addresses
    67  0000                     	;# 
    68  0001                     	;# 
    69  0002                     	;# 
    70  0003                     	;# 
    71  0004                     	;# 
    72  0005                     	;# 
    73  0006                     	;# 
    74  0007                     	;# 
    75  0008                     	;# 
    76  0009                     	;# 
    77  000A                     	;# 
    78  000B                     	;# 
    79  000C                     	;# 
    80  000D                     	;# 
    81  000E                     	;# 
    82  000E                     	;# 
    83  000F                     	;# 
    84  0010                     	;# 
    85  0011                     	;# 
    86  0012                     	;# 
    87  0013                     	;# 
    88  0014                     	;# 
    89  0015                     	;# 
    90  0015                     	;# 
    91  0016                     	;# 
    92  0017                     	;# 
    93  0018                     	;# 
    94  0019                     	;# 
    95  001A                     	;# 
    96  001B                     	;# 
    97  001B                     	;# 
    98  001C                     	;# 
    99  001D                     	;# 
   100  001E                     	;# 
   101  001F                     	;# 
   102  0081                     	;# 
   103  0085                     	;# 
   104  0086                     	;# 
   105  0087                     	;# 
   106  0088                     	;# 
   107  0089                     	;# 
   108  008C                     	;# 
   109  008D                     	;# 
   110  008E                     	;# 
   111  0091                     	;# 
   112  0092                     	;# 
   113  0093                     	;# 
   114  0094                     	;# 
   115  0098                     	;# 
   116  0099                     	;# 
   117  009C                     	;# 
   118  009D                     	;# 
   119  009E                     	;# 
   120  009F                     	;# 
   121  010C                     	;# 
   122  010D                     	;# 
   123  010E                     	;# 
   124  010F                     	;# 
   125  018C                     	;# 
   126  018D                     	;# 
   127  0000                     	;# 
   128  0001                     	;# 
   129  0002                     	;# 
   130  0003                     	;# 
   131  0004                     	;# 
   132  0005                     	;# 
   133  0006                     	;# 
   134  0007                     	;# 
   135  0008                     	;# 
   136  0009                     	;# 
   137  000A                     	;# 
   138  000B                     	;# 
   139  000C                     	;# 
   140  000D                     	;# 
   141  000E                     	;# 
   142  000E                     	;# 
   143  000F                     	;# 
   144  0010                     	;# 
   145  0011                     	;# 
   146  0012                     	;# 
   147  0013                     	;# 
   148  0014                     	;# 
   149  0015                     	;# 
   150  0015                     	;# 
   151  0016                     	;# 
   152  0017                     	;# 
   153  0018                     	;# 
   154  0019                     	;# 
   155  001A                     	;# 
   156  001B                     	;# 
   157  001B                     	;# 
   158  001C                     	;# 
   159  001D                     	;# 
   160  001E                     	;# 
   161  001F                     	;# 
   162  0081                     	;# 
   163  0085                     	;# 
   164  0086                     	;# 
   165  0087                     	;# 
   166  0088                     	;# 
   167  0089                     	;# 
   168  008C                     	;# 
   169  008D                     	;# 
   170  008E                     	;# 
   171  0091                     	;# 
   172  0092                     	;# 
   173  0093                     	;# 
   174  0094                     	;# 
   175  0098                     	;# 
   176  0099                     	;# 
   177  009C                     	;# 
   178  009D                     	;# 
   179  009E                     	;# 
   180  009F                     	;# 
   181  010C                     	;# 
   182  010D                     	;# 
   183  010E                     	;# 
   184  010F                     	;# 
   185  018C                     	;# 
   186  018D                     	;# 
   187  0000                     	;# 
   188  0001                     	;# 
   189  0002                     	;# 
   190  0003                     	;# 
   191  0004                     	;# 
   192  0005                     	;# 
   193  0006                     	;# 
   194  0007                     	;# 
   195  0008                     	;# 
   196  0009                     	;# 
   197  000A                     	;# 
   198  000B                     	;# 
   199  000C                     	;# 
   200  000D                     	;# 
   201  000E                     	;# 
   202  000E                     	;# 
   203  000F                     	;# 
   204  0010                     	;# 
   205  0011                     	;# 
   206  0012                     	;# 
   207  0013                     	;# 
   208  0014                     	;# 
   209  0015                     	;# 
   210  0015                     	;# 
   211  0016                     	;# 
   212  0017                     	;# 
   213  0018                     	;# 
   214  0019                     	;# 
   215  001A                     	;# 
   216  001B                     	;# 
   217  001B                     	;# 
   218  001C                     	;# 
   219  001D                     	;# 
   220  001E                     	;# 
   221  001F                     	;# 
   222  0081                     	;# 
   223  0085                     	;# 
   224  0086                     	;# 
   225  0087                     	;# 
   226  0088                     	;# 
   227  0089                     	;# 
   228  008C                     	;# 
   229  008D                     	;# 
   230  008E                     	;# 
   231  0091                     	;# 
   232  0092                     	;# 
   233  0093                     	;# 
   234  0094                     	;# 
   235  0098                     	;# 
   236  0099                     	;# 
   237  009C                     	;# 
   238  009D                     	;# 
   239  009E                     	;# 
   240  009F                     	;# 
   241  010C                     	;# 
   242  010D                     	;# 
   243  010E                     	;# 
   244  010F                     	;# 
   245  018C                     	;# 
   246  018D                     	;# 
   247  0000                     	;# 
   248  0001                     	;# 
   249  0002                     	;# 
   250  0003                     	;# 
   251  0004                     	;# 
   252  0005                     	;# 
   253  0006                     	;# 
   254  0007                     	;# 
   255  0008                     	;# 
   256  0009                     	;# 
   257  000A                     	;# 
   258  000B                     	;# 
   259  000C                     	;# 
   260  000D                     	;# 
   261  000E                     	;# 
   262  000E                     	;# 
   263  000F                     	;# 
   264  0010                     	;# 
   265  0011                     	;# 
   266  0012                     	;# 
   267  0013                     	;# 
   268  0014                     	;# 
   269  0015                     	;# 
   270  0015                     	;# 
   271  0016                     	;# 
   272  0017                     	;# 
   273  0018                     	;# 
   274  0019                     	;# 
   275  001A                     	;# 
   276  001B                     	;# 
   277  001B                     	;# 
   278  001C                     	;# 
   279  001D                     	;# 
   280  001E                     	;# 
   281  001F                     	;# 
   282  0081                     	;# 
   283  0085                     	;# 
   284  0086                     	;# 
   285  0087                     	;# 
   286  0088                     	;# 
   287  0089                     	;# 
   288  008C                     	;# 
   289  008D                     	;# 
   290  008E                     	;# 
   291  0091                     	;# 
   292  0092                     	;# 
   293  0093                     	;# 
   294  0094                     	;# 
   295  0098                     	;# 
   296  0099                     	;# 
   297  009C                     	;# 
   298  009D                     	;# 
   299  009E                     	;# 
   300  009F                     	;# 
   301  010C                     	;# 
   302  010D                     	;# 
   303  010E                     	;# 
   304  010F                     	;# 
   305  018C                     	;# 
   306  018D                     	;# 
   307  0000                     	;# 
   308  0001                     	;# 
   309  0002                     	;# 
   310  0003                     	;# 
   311  0004                     	;# 
   312  0005                     	;# 
   313  0006                     	;# 
   314  0007                     	;# 
   315  0008                     	;# 
   316  0009                     	;# 
   317  000A                     	;# 
   318  000B                     	;# 
   319  000C                     	;# 
   320  000D                     	;# 
   321  000E                     	;# 
   322  000E                     	;# 
   323  000F                     	;# 
   324  0010                     	;# 
   325  0011                     	;# 
   326  0012                     	;# 
   327  0013                     	;# 
   328  0014                     	;# 
   329  0015                     	;# 
   330  0015                     	;# 
   331  0016                     	;# 
   332  0017                     	;# 
   333  0018                     	;# 
   334  0019                     	;# 
   335  001A                     	;# 
   336  001B                     	;# 
   337  001B                     	;# 
   338  001C                     	;# 
   339  001D                     	;# 
   340  001E                     	;# 
   341  001F                     	;# 
   342  0081                     	;# 
   343  0085                     	;# 
   344  0086                     	;# 
   345  0087                     	;# 
   346  0088                     	;# 
   347  0089                     	;# 
   348  008C                     	;# 
   349  008D                     	;# 
   350  008E                     	;# 
   351  0091                     	;# 
   352  0092                     	;# 
   353  0093                     	;# 
   354  0094                     	;# 
   355  0098                     	;# 
   356  0099                     	;# 
   357  009C                     	;# 
   358  009D                     	;# 
   359  009E                     	;# 
   360  009F                     	;# 
   361  010C                     	;# 
   362  010D                     	;# 
   363  010E                     	;# 
   364  010F                     	;# 
   365  018C                     	;# 
   366  018D                     	;# 
   367  0000                     	;# 
   368  0001                     	;# 
   369  0002                     	;# 
   370  0003                     	;# 
   371  0004                     	;# 
   372  0005                     	;# 
   373  0006                     	;# 
   374  0007                     	;# 
   375  0008                     	;# 
   376  0009                     	;# 
   377  000A                     	;# 
   378  000B                     	;# 
   379  000C                     	;# 
   380  000D                     	;# 
   381  000E                     	;# 
   382  000E                     	;# 
   383  000F                     	;# 
   384  0010                     	;# 
   385  0011                     	;# 
   386  0012                     	;# 
   387  0013                     	;# 
   388  0014                     	;# 
   389  0015                     	;# 
   390  0015                     	;# 
   391  0016                     	;# 
   392  0017                     	;# 
   393  0018                     	;# 
   394  0019                     	;# 
   395  001A                     	;# 
   396  001B                     	;# 
   397  001B                     	;# 
   398  001C                     	;# 
   399  001D                     	;# 
   400  001E                     	;# 
   401  001F                     	;# 
   402  0081                     	;# 
   403  0085                     	;# 
   404  0086                     	;# 
   405  0087                     	;# 
   406  0088                     	;# 
   407  0089                     	;# 
   408  008C                     	;# 
   409  008D                     	;# 
   410  008E                     	;# 
   411  0091                     	;# 
   412  0092                     	;# 
   413  0093                     	;# 
   414  0094                     	;# 
   415  0098                     	;# 
   416  0099                     	;# 
   417  009C                     	;# 
   418  009D                     	;# 
   419  009E                     	;# 
   420  009F                     	;# 
   421  010C                     	;# 
   422  010D                     	;# 
   423  010E                     	;# 
   424  010F                     	;# 
   425  018C                     	;# 
   426  018D                     	;# 
   427  0000                     	;# 
   428  0001                     	;# 
   429  0002                     	;# 
   430  0003                     	;# 
   431  0004                     	;# 
   432  0005                     	;# 
   433  0006                     	;# 
   434  0007                     	;# 
   435  0008                     	;# 
   436  0009                     	;# 
   437  000A                     	;# 
   438  000B                     	;# 
   439  000C                     	;# 
   440  000D                     	;# 
   441  000E                     	;# 
   442  000E                     	;# 
   443  000F                     	;# 
   444  0010                     	;# 
   445  0011                     	;# 
   446  0012                     	;# 
   447  0013                     	;# 
   448  0014                     	;# 
   449  0015                     	;# 
   450  0015                     	;# 
   451  0016                     	;# 
   452  0017                     	;# 
   453  0018                     	;# 
   454  0019                     	;# 
   455  001A                     	;# 
   456  001B                     	;# 
   457  001B                     	;# 
   458  001C                     	;# 
   459  001D                     	;# 
   460  001E                     	;# 
   461  001F                     	;# 
   462  0081                     	;# 
   463  0085                     	;# 
   464  0086                     	;# 
   465  0087                     	;# 
   466  0088                     	;# 
   467  0089                     	;# 
   468  008C                     	;# 
   469  008D                     	;# 
   470  008E                     	;# 
   471  0091                     	;# 
   472  0092                     	;# 
   473  0093                     	;# 
   474  0094                     	;# 
   475  0098                     	;# 
   476  0099                     	;# 
   477  009C                     	;# 
   478  009D                     	;# 
   479  009E                     	;# 
   480  009F                     	;# 
   481  010C                     	;# 
   482  010D                     	;# 
   483  010E                     	;# 
   484  010F                     	;# 
   485  018C                     	;# 
   486  018D                     	;# 
   487  0000                     	;# 
   488  0001                     	;# 
   489  0002                     	;# 
   490  0003                     	;# 
   491  0004                     	;# 
   492  0005                     	;# 
   493  0006                     	;# 
   494  0007                     	;# 
   495  0008                     	;# 
   496  0009                     	;# 
   497  000A                     	;# 
   498  000B                     	;# 
   499  000C                     	;# 
   500  000D                     	;# 
   501  000E                     	;# 
   502  000E                     	;# 
   503  000F                     	;# 
   504  0010                     	;# 
   505  0011                     	;# 
   506  0012                     	;# 
   507  0013                     	;# 
   508  0014                     	;# 
   509  0015                     	;# 
   510  0015                     	;# 
   511  0016                     	;# 
   512  0017                     	;# 
   513  0018                     	;# 
   514  0019                     	;# 
   515  001A                     	;# 
   516  001B                     	;# 
   517  001B                     	;# 
   518  001C                     	;# 
   519  001D                     	;# 
   520  001E                     	;# 
   521  001F                     	;# 
   522  0081                     	;# 
   523  0085                     	;# 
   524  0086                     	;# 
   525  0087                     	;# 
   526  0088                     	;# 
   527  0089                     	;# 
   528  008C                     	;# 
   529  008D                     	;# 
   530  008E                     	;# 
   531  0091                     	;# 
   532  0092                     	;# 
   533  0093                     	;# 
   534  0094                     	;# 
   535  0098                     	;# 
   536  0099                     	;# 
   537  009C                     	;# 
   538  009D                     	;# 
   539  009E                     	;# 
   540  009F                     	;# 
   541  010C                     	;# 
   542  010D                     	;# 
   543  010E                     	;# 
   544  010F                     	;# 
   545  018C                     	;# 
   546  018D                     	;# 
   547  0000                     	;# 
   548  0001                     	;# 
   549  0002                     	;# 
   550  0003                     	;# 
   551  0004                     	;# 
   552  0005                     	;# 
   553  0006                     	;# 
   554  0007                     	;# 
   555  0008                     	;# 
   556  0009                     	;# 
   557  000A                     	;# 
   558  000B                     	;# 
   559  000C                     	;# 
   560  000D                     	;# 
   561  000E                     	;# 
   562  000E                     	;# 
   563  000F                     	;# 
   564  0010                     	;# 
   565  0011                     	;# 
   566  0012                     	;# 
   567  0013                     	;# 
   568  0014                     	;# 
   569  0015                     	;# 
   570  0015                     	;# 
   571  0016                     	;# 
   572  0017                     	;# 
   573  0018                     	;# 
   574  0019                     	;# 
   575  001A                     	;# 
   576  001B                     	;# 
   577  001B                     	;# 
   578  001C                     	;# 
   579  001D                     	;# 
   580  001E                     	;# 
   581  001F                     	;# 
   582  0081                     	;# 
   583  0085                     	;# 
   584  0086                     	;# 
   585  0087                     	;# 
   586  0088                     	;# 
   587  0089                     	;# 
   588  008C                     	;# 
   589  008D                     	;# 
   590  008E                     	;# 
   591  0091                     	;# 
   592  0092                     	;# 
   593  0093                     	;# 
   594  0094                     	;# 
   595  0098                     	;# 
   596  0099                     	;# 
   597  009C                     	;# 
   598  009D                     	;# 
   599  009E                     	;# 
   600  009F                     	;# 
   601  010C                     	;# 
   602  010D                     	;# 
   603  010E                     	;# 
   604  010F                     	;# 
   605  018C                     	;# 
   606  018D                     	;# 
   607  0000                     	;# 
   608  0001                     	;# 
   609  0002                     	;# 
   610  0003                     	;# 
   611  0004                     	;# 
   612  0005                     	;# 
   613  0006                     	;# 
   614  0007                     	;# 
   615  0008                     	;# 
   616  0009                     	;# 
   617  000A                     	;# 
   618  000B                     	;# 
   619  000C                     	;# 
   620  000D                     	;# 
   621  000E                     	;# 
   622  000E                     	;# 
   623  000F                     	;# 
   624  0010                     	;# 
   625  0011                     	;# 
   626  0012                     	;# 
   627  0013                     	;# 
   628  0014                     	;# 
   629  0015                     	;# 
   630  0015                     	;# 
   631  0016                     	;# 
   632  0017                     	;# 
   633  0018                     	;# 
   634  0019                     	;# 
   635  001A                     	;# 
   636  001B                     	;# 
   637  001B                     	;# 
   638  001C                     	;# 
   639  001D                     	;# 
   640  001E                     	;# 
   641  001F                     	;# 
   642  0081                     	;# 
   643  0085                     	;# 
   644  0086                     	;# 
   645  0087                     	;# 
   646  0088                     	;# 
   647  0089                     	;# 
   648  008C                     	;# 
   649  008D                     	;# 
   650  008E                     	;# 
   651  0091                     	;# 
   652  0092                     	;# 
   653  0093                     	;# 
   654  0094                     	;# 
   655  0098                     	;# 
   656  0099                     	;# 
   657  009C                     	;# 
   658  009D                     	;# 
   659  009E                     	;# 
   660  009F                     	;# 
   661  010C                     	;# 
   662  010D                     	;# 
   663  010E                     	;# 
   664  010F                     	;# 
   665  018C                     	;# 
   666  018D                     	;# 
   667  0000                     	;# 
   668  0001                     	;# 
   669  0002                     	;# 
   670  0003                     	;# 
   671  0004                     	;# 
   672  0005                     	;# 
   673  0006                     	;# 
   674  0007                     	;# 
   675  0008                     	;# 
   676  0009                     	;# 
   677  000A                     	;# 
   678  000B                     	;# 
   679  000C                     	;# 
   680  000D                     	;# 
   681  000E                     	;# 
   682  000E                     	;# 
   683  000F                     	;# 
   684  0010                     	;# 
   685  0011                     	;# 
   686  0012                     	;# 
   687  0013                     	;# 
   688  0014                     	;# 
   689  0015                     	;# 
   690  0015                     	;# 
   691  0016                     	;# 
   692  0017                     	;# 
   693  0018                     	;# 
   694  0019                     	;# 
   695  001A                     	;# 
   696  001B                     	;# 
   697  001B                     	;# 
   698  001C                     	;# 
   699  001D                     	;# 
   700  001E                     	;# 
   701  001F                     	;# 
   702  0081                     	;# 
   703  0085                     	;# 
   704  0086                     	;# 
   705  0087                     	;# 
   706  0088                     	;# 
   707  0089                     	;# 
   708  008C                     	;# 
   709  008D                     	;# 
   710  008E                     	;# 
   711  0091                     	;# 
   712  0092                     	;# 
   713  0093                     	;# 
   714  0094                     	;# 
   715  0098                     	;# 
   716  0099                     	;# 
   717  009C                     	;# 
   718  009D                     	;# 
   719  009E                     	;# 
   720  009F                     	;# 
   721  010C                     	;# 
   722  010D                     	;# 
   723  010E                     	;# 
   724  010F                     	;# 
   725  018C                     	;# 
   726  018D                     	;# 
   727  0000                     	;# 
   728  0001                     	;# 
   729  0002                     	;# 
   730  0003                     	;# 
   731  0004                     	;# 
   732  0005                     	;# 
   733  0006                     	;# 
   734  0007                     	;# 
   735  0008                     	;# 
   736  0009                     	;# 
   737  000A                     	;# 
   738  000B                     	;# 
   739  000C                     	;# 
   740  000D                     	;# 
   741  000E                     	;# 
   742  000E                     	;# 
   743  000F                     	;# 
   744  0010                     	;# 
   745  0011                     	;# 
   746  0012                     	;# 
   747  0013                     	;# 
   748  0014                     	;# 
   749  0015                     	;# 
   750  0015                     	;# 
   751  0016                     	;# 
   752  0017                     	;# 
   753  0018                     	;# 
   754  0019                     	;# 
   755  001A                     	;# 
   756  001B                     	;# 
   757  001B                     	;# 
   758  001C                     	;# 
   759  001D                     	;# 
   760  001E                     	;# 
   761  001F                     	;# 
   762  0081                     	;# 
   763  0085                     	;# 
   764  0086                     	;# 
   765  0087                     	;# 
   766  0088                     	;# 
   767  0089                     	;# 
   768  008C                     	;# 
   769  008D                     	;# 
   770  008E                     	;# 
   771  0091                     	;# 
   772  0092                     	;# 
   773  0093                     	;# 
   774  0094                     	;# 
   775  0098                     	;# 
   776  0099                     	;# 
   777  009C                     	;# 
   778  009D                     	;# 
   779  009E                     	;# 
   780  009F                     	;# 
   781  010C                     	;# 
   782  010D                     	;# 
   783  010E                     	;# 
   784  010F                     	;# 
   785  018C                     	;# 
   786  018D                     	;# 
   787                           
   788                           	psect	strings
   789  0256                     __pstrings:
   790  0256                     stringtab:
   791  0256                     __stringtab:
   792  0256                     stringcode:	
   793                           ;	String table - string pointers are 1 byte each
   794                           
   795  0256                     stringdir:
   796  0256  3002               	movlw	high stringdir
   797  0257  008A               	movwf	10
   798  0258  0804               	movf	4,w
   799  0259  0A84               	incf	4,f
   800  025A  0782               	addwf	2,f
   801  025B                     __stringbase:
   802  025B  3400               	retlw	0
   803  025C                     __end_of__stringtab:
   804  025C                     _Tasks:
   805  025C  3414               	retlw	20
   806  025D  3400               	retlw	0
   807  025E  3406               	retlw	low (fp__Scheduler_Task1-fpbase)
   808  025F  3464               	retlw	100
   809  0260  3400               	retlw	0
   810  0261  3409               	retlw	low (fp__Scheduler_Task2-fpbase)
   811  0262  34F4               	retlw	244
   812  0263  3401               	retlw	1
   813  0264  3403               	retlw	low (fp__Scheduler_Task3-fpbase)
   814  0265                     __end_of_Tasks:
   815  0265                     _Interrupt_CbStruct:
   816  0265  3404               	retlw	low (fp__Timer0_CB-i1fpbase)
   817  0266  3401               	retlw	low (fp__EXTI_SettingButton_CB-i1fpbase)
   818  0267                     __end_of_Interrupt_CbStruct:
   819  0006                     _PORTB	set	6
   820  0001                     _TMR0	set	1
   821  000B                     _INTCONbits	set	11
   822  0088                     _TRISD	set	136
   823  0085                     _TRISA	set	133
   824  0086                     _TRISB	set	134
   825  0081                     _OPTION_REGbits	set	129
   826                           
   827                           	psect	cinit
   828  0015                     start_initialization:	
   829                           ; #config settings
   830                           
   831  0015                     __initialization:
   832                           
   833                           ; Clear objects allocated to BANK0
   834  0015  1383               	bcf	3,7	;select IRP bank0
   835  0016  3040               	movlw	low __pbssBANK0
   836  0017  0084               	movwf	4
   837  0018  3054               	movlw	low (__pbssBANK0+20)
   838  0019  120A  118A  2286  120A  118A  	fcall	clear_ram0
   839  001E                     end_of_initialization:	
   840                           ;End of C runtime variable initialization code
   841                           
   842  001E                     __end_of__initialization:
   843  001E  0183               	clrf	3
   844  001F  120A  118A  2A13   	ljmp	_main	;jump to C main() function
   845                           
   846                           	psect	bssBANK0
   847  0040                     __pbssBANK0:
   848  0040                     _Tick:
   849  0040                     	ds	4
   850  0044                     _Clock:
   851  0044                     	ds	3
   852  0047                     _c:
   853  0047                     	ds	1
   854  0048                     Buttons_Update@Debounce_Counter:
   855  0048                     	ds	1
   856  0049                     _MODE:
   857  0049                     	ds	1
   858  004A                     _ButtonsFlag:
   859  004A                     	ds	1
   860  004B                     _Debounce_DownButton:
   861  004B                     	ds	3
   862  004E                     _Debounce_UpButton:
   863  004E                     	ds	3
   864  0051                     _Task_Flag:
   865  0051                     	ds	3
   866                           
   867                           	psect	clrtext
   868  0286                     clear_ram0:	
   869                           ;	Called with FSR containing the base address, and
   870                           ;	W with the last address+1
   871                           
   872  0286  0064               	clrwdt	;clear the watchdog before getting into this loop
   873  0287                     clrloop0:
   874  0287  0180               	clrf	0	;clear RAM location pointed to by FSR
   875  0288  0A84               	incf	4,f	;increment pointer
   876  0289  0604               	xorwf	4,w	;XOR with final address
   877  028A  1903               	btfsc	3,2	;have we reached the end yet?
   878  028B  3400               	retlw	0	;all done for this memory range, return
   879  028C  0604               	xorwf	4,w	;XOR again to restore value
   880  028D  2A87               	goto	clrloop0	;do the next byte
   881                           
   882                           	psect	cstackBANK1
   883  00A0                     __pcstackBANK1:
   884  00A0                     memset@p:
   885                           
   886                           ; 1 bytes @ 0x0
   887  00A0                     	ds	1
   888  00A1                     memset@p1:
   889                           
   890                           ; 1 bytes @ 0x1
   891  00A1                     	ds	1
   892                           
   893                           	psect	cstackCOMMON
   894  0070                     __pcstackCOMMON:
   895  0070                     ?_Timer_Init:
   896  0070                     ?_Scheduler_Init:	
   897                           ; 1 bytes @ 0x0
   898                           
   899  0070                     ?_Timer_Start:	
   900                           ; 1 bytes @ 0x0
   901                           
   902  0070                     ?_Scheduler_Update:	
   903                           ; 1 bytes @ 0x0
   904                           
   905  0070                     ?_Scheduler_Task1:	
   906                           ; 1 bytes @ 0x0
   907                           
   908  0070                     ?_Scheduler_Task2:	
   909                           ; 1 bytes @ 0x0
   910                           
   911  0070                     ?_Scheduler_Task3:	
   912                           ; 1 bytes @ 0x0
   913                           
   914  0070                     ?_main:	
   915                           ; 1 bytes @ 0x0
   916                           
   917  0070                     ?_Timer0_CB:	
   918                           ; 1 bytes @ 0x0
   919                           
   920  0070                     ?_EXTI_SettingButton_CB:	
   921                           ; 1 bytes @ 0x0
   922                           
   923  0070                     ??_EXTI_SettingButton_CB:	
   924                           ; 1 bytes @ 0x0
   925                           
   926  0070                     ?_ISR:	
   927                           ; 1 bytes @ 0x0
   928                           
   929  0070                     ?i1___bmul:	
   930                           ; 1 bytes @ 0x0
   931                           
   932  0070                     i1___bmul@multiplicand:	
   933                           ; 1 bytes @ 0x0
   934                           
   935                           
   936                           ; 1 bytes @ 0x0
   937  0070                     	ds	1
   938  0071                     ??i1___bmul:
   939  0071                     i1___bmul@product:	
   940                           ; 1 bytes @ 0x1
   941                           
   942                           
   943                           ; 1 bytes @ 0x1
   944  0071                     	ds	1
   945  0072                     i1___bmul@multiplier:
   946                           
   947                           ; 1 bytes @ 0x2
   948  0072                     	ds	1
   949  0073                     ?___lldiv:
   950  0073                     ___lldiv@divisor:	
   951                           ; 4 bytes @ 0x3
   952                           
   953                           
   954                           ; 4 bytes @ 0x3
   955  0073                     	ds	4
   956  0077                     ___lldiv@dividend:
   957                           
   958                           ; 4 bytes @ 0x7
   959  0077                     	ds	4
   960  007B                     ??___lldiv:
   961                           
   962                           ; 1 bytes @ 0xB
   963  007B                     	ds	1
   964  007C                     ??___llmod:
   965                           
   966                           ; 1 bytes @ 0xC
   967  007C                     	ds	1
   968  007D                     ___llmod@counter:
   969                           
   970                           ; 1 bytes @ 0xD
   971  007D                     	ds	1
   972  007E                     ??_Timer0_CB:
   973                           
   974                           	psect	cstackBANK0
   975  0020                     __pcstackBANK0:	
   976                           ; 1 bytes @ 0xE
   977                           
   978  0020                     ___lldiv@quotient:
   979                           
   980                           ; 4 bytes @ 0x0
   981  0020                     	ds	4
   982  0024                     ___lldiv@counter:
   983                           
   984                           ; 1 bytes @ 0x4
   985  0024                     	ds	1
   986  0025                     ?___llmod:
   987  0025                     ___llmod@divisor:	
   988                           ; 4 bytes @ 0x5
   989                           
   990                           
   991                           ; 4 bytes @ 0x5
   992  0025                     	ds	4
   993  0029                     ___llmod@dividend:
   994                           
   995                           ; 4 bytes @ 0x9
   996  0029                     	ds	4
   997  002D                     ?_Scheduler_Active:
   998  002D                     Scheduler_Active@System_Tick:	
   999                           ; 1 bytes @ 0xD
  1000                           
  1001                           
  1002                           ; 4 bytes @ 0xD
  1003  002D                     	ds	4
  1004  0031                     ??_Scheduler_Active:
  1005                           
  1006                           ; 1 bytes @ 0x11
  1007  0031                     	ds	6
  1008  0037                     Scheduler_Active@i:
  1009                           
  1010                           ; 1 bytes @ 0x17
  1011  0037                     	ds	1
  1012  0038                     ??_ISR:
  1013                           
  1014                           ; 1 bytes @ 0x18
  1015  0038                     	ds	4
  1016  003C                     ??_Timer_Init:
  1017  003C                     ??_Timer_Start:	
  1018                           ; 1 bytes @ 0x1C
  1019                           
  1020  003C                     ?_memset:	
  1021                           ; 1 bytes @ 0x1C
  1022                           
  1023  003C                     ??_Scheduler_Task1:	
  1024                           ; 1 bytes @ 0x1C
  1025                           
  1026  003C                     ??_Scheduler_Task2:	
  1027                           ; 1 bytes @ 0x1C
  1028                           
  1029  003C                     ??_Scheduler_Task3:	
  1030                           ; 1 bytes @ 0x1C
  1031                           
  1032  003C                     ?___bmul:	
  1033                           ; 1 bytes @ 0x1C
  1034                           
  1035  003C                     ___bmul@multiplicand:	
  1036                           ; 1 bytes @ 0x1C
  1037                           
  1038  003C                     memset@c:	
  1039                           ; 1 bytes @ 0x1C
  1040                           
  1041                           
  1042                           ; 2 bytes @ 0x1C
  1043  003C                     	ds	1
  1044  003D                     ??___bmul:
  1045  003D                     ___bmul@product:	
  1046                           ; 1 bytes @ 0x1D
  1047                           
  1048                           
  1049                           ; 1 bytes @ 0x1D
  1050  003D                     	ds	1
  1051  003E                     ___bmul@multiplier:
  1052  003E                     memset@n:	
  1053                           ; 1 bytes @ 0x1E
  1054                           
  1055                           
  1056                           ; 2 bytes @ 0x1E
  1057  003E                     	ds	1
  1058  003F                     ??_Scheduler_Update:
  1059  003F                     Scheduler_Update@i:	
  1060                           ; 1 bytes @ 0x1F
  1061                           
  1062                           
  1063                           ; 1 bytes @ 0x1F
  1064  003F                     	ds	1
  1065  0040                     ??_Scheduler_Init:
  1066  0040                     ??_memset:	
  1067                           ; 1 bytes @ 0x20
  1068                           
  1069  0040                     ??_main:	
  1070                           ; 1 bytes @ 0x20
  1071                           
  1072                           
  1073                           	psect	maintext
  1074  0213                     __pmaintext:	
  1075                           ; 1 bytes @ 0x20
  1076 ;;
  1077 ;;Main: autosize = 0, tempsize = 0, incstack = 0, save=0
  1078 ;;
  1079 ;; *************** function _main *****************
  1080 ;; Defined at:
  1081 ;;		line 12 in file "main.c"
  1082 ;; Parameters:    Size  Location     Type
  1083 ;;		None
  1084 ;; Auto vars:     Size  Location     Type
  1085 ;;		None
  1086 ;; Return value:  Size  Location     Type
  1087 ;;                  1    wreg      void 
  1088 ;; Registers used:
  1089 ;;		wreg, fsr0l, fsr0h, status,2, status,0, btemp+1, pclath, cstack
  1090 ;; Tracked objects:
  1091 ;;		On entry : B00/0
  1092 ;;		On exit  : 0/0
  1093 ;;		Unchanged: 0/0
  1094 ;; Data sizes:     COMMON   BANK0   BANK1   BANK3   BANK2
  1095 ;;      Params:         0       0       0       0       0
  1096 ;;      Locals:         0       0       0       0       0
  1097 ;;      Temps:          0       0       0       0       0
  1098 ;;      Totals:         0       0       0       0       0
  1099 ;;Total ram usage:        0 bytes
  1100 ;; Hardware stack levels required when called:    6
  1101 ;; This function calls:
  1102 ;;		_Scheduler_Init
  1103 ;;		_Scheduler_Update
  1104 ;;		_Timer_Init
  1105 ;;		_Timer_Start
  1106 ;; This function is called by:
  1107 ;;		Startup code after reset
  1108 ;; This function uses a non-reentrant model
  1109 ;;
  1110                           
  1111                           
  1112                           ;psect for function _main
  1113  0213                     _main:
  1114  0213                     l1474:	
  1115                           ;incstack = 0
  1116                           ; Regs used in _main: [wreg-fsr0h+status,2+status,0+btemp+1+pclath+cstack]
  1117                           
  1118                           
  1119                           ;main.c: 14:     Timer_Init();
  1120  0213  120A  118A  2277  120A  118A  	fcall	_Timer_Init
  1121  0218                     l1476:
  1122                           
  1123                           ;main.c: 15:     Scheduler_Init();
  1124  0218  120A  118A  2267  120A  118A  	fcall	_Scheduler_Init
  1125  021D                     l1478:
  1126                           
  1127                           ;main.c: 16:     Timer_Start();
  1128  021D  120A  118A  22A7  120A  118A  	fcall	_Timer_Start
  1129  0222                     l1480:
  1130                           
  1131                           ;main.c: 17:     Scheduler_Update();
  1132  0222  120A  118A  219F  120A  118A  	fcall	_Scheduler_Update
  1133  0227                     l13:
  1134  0227  120A  118A  2812   	ljmp	start
  1135  022A                     __end_of_main:
  1136                           
  1137                           	psect	text1
  1138  02A7                     __ptext1:	
  1139 ;; *************** function _Timer_Start *****************
  1140 ;; Defined at:
  1141 ;;		line 31 in file "Timer/Timer.c"
  1142 ;; Parameters:    Size  Location     Type
  1143 ;;		None
  1144 ;; Auto vars:     Size  Location     Type
  1145 ;;		None
  1146 ;; Return value:  Size  Location     Type
  1147 ;;                  1    wreg      void 
  1148 ;; Registers used:
  1149 ;;		None
  1150 ;; Tracked objects:
  1151 ;;		On entry : 0/0
  1152 ;;		On exit  : 0/0
  1153 ;;		Unchanged: 0/0
  1154 ;; Data sizes:     COMMON   BANK0   BANK1   BANK3   BANK2
  1155 ;;      Params:         0       0       0       0       0
  1156 ;;      Locals:         0       0       0       0       0
  1157 ;;      Temps:          0       0       0       0       0
  1158 ;;      Totals:         0       0       0       0       0
  1159 ;;Total ram usage:        0 bytes
  1160 ;; Hardware stack levels used:    1
  1161 ;; Hardware stack levels required when called:    4
  1162 ;; This function calls:
  1163 ;;		Nothing
  1164 ;; This function is called by:
  1165 ;;		_main
  1166 ;; This function uses a non-reentrant model
  1167 ;;
  1168                           
  1169                           
  1170                           ;psect for function _Timer_Start
  1171  02A7                     _Timer_Start:
  1172  02A7                     l1262:	
  1173                           ;incstack = 0
  1174                           ; Regs used in _Timer_Start: []
  1175                           
  1176                           
  1177                           ;Timer/Timer.c: 33:      INTCONbits.T0IE=1;
  1178  02A7  168B               	bsf	11,5	;volatile
  1179  02A8                     l54:
  1180  02A8  0008               	return
  1181  02A9                     __end_of_Timer_Start:
  1182                           
  1183                           	psect	text2
  1184  0277                     __ptext2:	
  1185 ;; *************** function _Timer_Init *****************
  1186 ;; Defined at:
  1187 ;;		line 13 in file "Timer/Timer.c"
  1188 ;; Parameters:    Size  Location     Type
  1189 ;;		None
  1190 ;; Auto vars:     Size  Location     Type
  1191 ;;		None
  1192 ;; Return value:  Size  Location     Type
  1193 ;;                  1    wreg      void 
  1194 ;; Registers used:
  1195 ;;		wreg
  1196 ;; Tracked objects:
  1197 ;;		On entry : 0/0
  1198 ;;		On exit  : 0/0
  1199 ;;		Unchanged: 0/0
  1200 ;; Data sizes:     COMMON   BANK0   BANK1   BANK3   BANK2
  1201 ;;      Params:         0       0       0       0       0
  1202 ;;      Locals:         0       0       0       0       0
  1203 ;;      Temps:          0       0       0       0       0
  1204 ;;      Totals:         0       0       0       0       0
  1205 ;;Total ram usage:        0 bytes
  1206 ;; Hardware stack levels used:    1
  1207 ;; Hardware stack levels required when called:    4
  1208 ;; This function calls:
  1209 ;;		Nothing
  1210 ;; This function is called by:
  1211 ;;		_main
  1212 ;; This function uses a non-reentrant model
  1213 ;;
  1214                           
  1215                           
  1216                           ;psect for function _Timer_Init
  1217  0277                     _Timer_Init:
  1218  0277                     l1254:	
  1219                           ;incstack = 0
  1220                           ; Regs used in _Timer_Init: [wreg]
  1221                           
  1222                           
  1223                           ;Timer/Timer.c: 15:     OPTION_REGbits.T0CS=0;
  1224  0277  1683               	bsf	3,5	;RP0=1, select bank1
  1225  0278  1303               	bcf	3,6	;RP1=0, select bank1
  1226  0279  1281               	bcf	1,5	;volatile
  1227                           
  1228                           ;Timer/Timer.c: 16:     OPTION_REGbits.PSA=0;
  1229  027A  1181               	bcf	1,3	;volatile
  1230                           
  1231                           ;Timer/Timer.c: 18:     OPTION_REGbits.PS0=1;
  1232  027B  1401               	bsf	1,0	;volatile
  1233                           
  1234                           ;Timer/Timer.c: 19:     OPTION_REGbits.PS1=1;
  1235  027C  1481               	bsf	1,1	;volatile
  1236                           
  1237                           ;Timer/Timer.c: 20:     OPTION_REGbits.PS2=1;
  1238  027D  1501               	bsf	1,2	;volatile
  1239                           
  1240                           ;Timer/Timer.c: 22:     INTCONbits.PEIE=1;
  1241  027E  170B               	bsf	11,6	;volatile
  1242                           
  1243                           ;Timer/Timer.c: 24:     INTCONbits.GIE=1;
  1244  027F  178B               	bsf	11,7	;volatile
  1245  0280                     l1256:
  1246                           
  1247                           ;Timer/Timer.c: 25:     TMR0=100;
  1248  0280  3064               	movlw	100
  1249  0281  1283               	bcf	3,5	;RP0=0, select bank0
  1250  0282  1303               	bcf	3,6	;RP1=0, select bank0
  1251  0283  0081               	movwf	1	;volatile
  1252  0284                     l1258:
  1253                           
  1254                           ;Timer/Timer.c: 26:     INTCONbits.T0IF=0;
  1255  0284  110B               	bcf	11,2	;volatile
  1256  0285                     l51:
  1257  0285  0008               	return
  1258  0286                     __end_of_Timer_Init:
  1259                           
  1260                           	psect	text3
  1261  019F                     __ptext3:	
  1262 ;; *************** function _Scheduler_Update *****************
  1263 ;; Defined at:
  1264 ;;		line 15 in file "Scheduler/Scheduler.c"
  1265 ;; Parameters:    Size  Location     Type
  1266 ;;		None
  1267 ;; Auto vars:     Size  Location     Type
  1268 ;;  i               1   31[BANK0 ] unsigned char 
  1269 ;; Return value:  Size  Location     Type
  1270 ;;                  1    wreg      void 
  1271 ;; Registers used:
  1272 ;;		wreg, fsr0l, fsr0h, status,2, status,0, btemp+1, pclath, cstack
  1273 ;; Tracked objects:
  1274 ;;		On entry : 0/0
  1275 ;;		On exit  : 0/0
  1276 ;;		Unchanged: 0/0
  1277 ;; Data sizes:     COMMON   BANK0   BANK1   BANK3   BANK2
  1278 ;;      Params:         0       0       0       0       0
  1279 ;;      Locals:         0       1       0       0       0
  1280 ;;      Temps:          0       0       0       0       0
  1281 ;;      Totals:         0       1       0       0       0
  1282 ;;Total ram usage:        1 bytes
  1283 ;; Hardware stack levels used:    1
  1284 ;; Hardware stack levels required when called:    5
  1285 ;; This function calls:
  1286 ;;		_Scheduler_Task1
  1287 ;;		_Scheduler_Task2
  1288 ;;		_Scheduler_Task3
  1289 ;;		___bmul
  1290 ;; This function is called by:
  1291 ;;		_main
  1292 ;; This function uses a non-reentrant model
  1293 ;;
  1294                           
  1295                           
  1296                           ;psect for function _Scheduler_Update
  1297  019F                     _Scheduler_Update:
  1298  019F                     l25:	
  1299                           ;incstack = 0
  1300                           ; Regs used in _Scheduler_Update: [wreg-fsr0h+status,2+status,0+btemp+1+pclath+cstack]
  1301                           ;Scheduler/Scheduler.c: 17:     while(1)
  1302                           
  1303  019F                     l1264:
  1304                           
  1305                           ;Scheduler/Scheduler.c: 18:     {;Scheduler/Scheduler.c: 20:        for(uint8_t i=0 ;i<(
      +                          3UL);i++)
  1306  019F  1283               	bcf	3,5	;RP0=0, select bank0
  1307  01A0  1303               	bcf	3,6	;RP1=0, select bank0
  1308  01A1  01BF               	clrf	Scheduler_Update@i
  1309  01A2                     l1270:
  1310                           
  1311                           ;Scheduler/Scheduler.c: 21:        {;Scheduler/Scheduler.c: 23:            if(Task_Flag[
      +                          i]==1)
  1312  01A2  083F               	movf	Scheduler_Update@i,w
  1313  01A3  3E51               	addlw	(low (_Task_Flag| 0))& (0+255)
  1314  01A4  0084               	movwf	4
  1315  01A5  1383               	bcf	3,7	;select IRP bank0
  1316  01A6  0300               	decf	0,w
  1317  01A7  1D03               	btfss	3,2
  1318  01A8  29AA               	goto	u671
  1319  01A9  29AB               	goto	u670
  1320  01AA                     u671:
  1321  01AA  29C1               	goto	l1274
  1322  01AB                     u670:
  1323  01AB                     l1272:
  1324                           
  1325                           ;Scheduler/Scheduler.c: 24:            {;Scheduler/Scheduler.c: 25:                Tasks
      +                          [i].Task();
  1326  01AB  3003               	movlw	3
  1327  01AC  00FF               	movwf	btemp+1
  1328  01AD  087F               	movf	btemp+1,w
  1329  01AE  00BC               	movwf	___bmul@multiplicand
  1330  01AF  083F               	movf	Scheduler_Update@i,w
  1331  01B0  120A  118A  222A  120A  118A  	fcall	___bmul
  1332  01B5  3E03               	addlw	low (((_Tasks-__stringbase)| (0+32768)+2))
  1333  01B6  0084               	movwf	4
  1334  01B7  120A  118A  2256  120A  118A  	fcall	stringdir
  1335  01BC  120A  118A  2022  120A  118A  	fcall	fptable
  1336  01C1                     l1274:
  1337                           
  1338                           ;Scheduler/Scheduler.c: 28:        }
  1339  01C1  3001               	movlw	1
  1340  01C2  00FF               	movwf	btemp+1
  1341  01C3  087F               	movf	btemp+1,w
  1342  01C4  1283               	bcf	3,5	;RP0=0, select bank0
  1343  01C5  1303               	bcf	3,6	;RP1=0, select bank0
  1344  01C6  07BF               	addwf	Scheduler_Update@i,f
  1345  01C7                     l1276:
  1346  01C7  3003               	movlw	3
  1347  01C8  023F               	subwf	Scheduler_Update@i,w
  1348  01C9  1C03               	skipc
  1349  01CA  29CC               	goto	u681
  1350  01CB  29CD               	goto	u680
  1351  01CC                     u681:
  1352  01CC  29A2               	goto	l1270
  1353  01CD                     u680:
  1354  01CD  299F               	goto	l25
  1355  01CE  0008               	return
  1356  01CF                     __end_of_Scheduler_Update:
  1357                           
  1358                           	psect	text4
  1359  022A                     __ptext4:	
  1360 ;; *************** function ___bmul *****************
  1361 ;; Defined at:
  1362 ;;		line 4 in file "C:\Program Files (x86)\Microchip\xc8\v2.20\pic\sources\c90\common\Umul8.c"
  1363 ;; Parameters:    Size  Location     Type
  1364 ;;  multiplier      1    wreg     unsigned char 
  1365 ;;  multiplicand    1   28[BANK0 ] unsigned char 
  1366 ;; Auto vars:     Size  Location     Type
  1367 ;;  multiplier      1   30[BANK0 ] unsigned char 
  1368 ;;  product         1   29[BANK0 ] unsigned char 
  1369 ;; Return value:  Size  Location     Type
  1370 ;;                  1    wreg      unsigned char 
  1371 ;; Registers used:
  1372 ;;		wreg, status,2, status,0, btemp+1
  1373 ;; Tracked objects:
  1374 ;;		On entry : 0/0
  1375 ;;		On exit  : 0/0
  1376 ;;		Unchanged: 0/0
  1377 ;; Data sizes:     COMMON   BANK0   BANK1   BANK3   BANK2
  1378 ;;      Params:         0       1       0       0       0
  1379 ;;      Locals:         0       2       0       0       0
  1380 ;;      Temps:          0       0       0       0       0
  1381 ;;      Totals:         0       3       0       0       0
  1382 ;;Total ram usage:        3 bytes
  1383 ;; Hardware stack levels used:    1
  1384 ;; Hardware stack levels required when called:    4
  1385 ;; This function calls:
  1386 ;;		Nothing
  1387 ;; This function is called by:
  1388 ;;		_Scheduler_Update
  1389 ;;		_Scheduler_Active
  1390 ;; This function uses a non-reentrant model
  1391 ;;
  1392                           
  1393                           
  1394                           ;psect for function ___bmul
  1395  022A                     ___bmul:
  1396                           
  1397                           ;incstack = 0
  1398                           ; Regs used in ___bmul: [wreg+status,2+status,0+btemp+1]
  1399                           ;___bmul@multiplier stored from wreg
  1400  022A  1283               	bcf	3,5	;RP0=0, select bank0
  1401  022B  1303               	bcf	3,6	;RP1=0, select bank0
  1402  022C  00BE               	movwf	___bmul@multiplier
  1403  022D                     l1238:
  1404  022D  01BD               	clrf	___bmul@product
  1405  022E                     l1240:
  1406  022E  1C3E               	btfss	___bmul@multiplier,0
  1407  022F  2A31               	goto	u651
  1408  0230  2A32               	goto	u650
  1409  0231                     u651:
  1410  0231  2A36               	goto	l1244
  1411  0232                     u650:
  1412  0232                     l1242:
  1413  0232  083C               	movf	___bmul@multiplicand,w
  1414  0233  00FF               	movwf	btemp+1
  1415  0234  087F               	movf	btemp+1,w
  1416  0235  07BD               	addwf	___bmul@product,f
  1417  0236                     l1244:
  1418  0236  1003               	clrc
  1419  0237  0DBC               	rlf	___bmul@multiplicand,f
  1420  0238                     l1246:
  1421  0238  1003               	clrc
  1422  0239  0CBE               	rrf	___bmul@multiplier,f
  1423  023A                     l1248:
  1424  023A  083E               	movf	___bmul@multiplier,w
  1425  023B  1D03               	btfss	3,2
  1426  023C  2A3E               	goto	u661
  1427  023D  2A3F               	goto	u660
  1428  023E                     u661:
  1429  023E  2A2E               	goto	l1240
  1430  023F                     u660:
  1431  023F                     l1250:
  1432  023F  083D               	movf	___bmul@product,w
  1433  0240                     l358:
  1434  0240  0008               	return
  1435  0241                     __end_of___bmul:
  1436                           
  1437                           	psect	text5
  1438  028E                     __ptext5:	
  1439 ;; *************** function _Scheduler_Task2 *****************
  1440 ;; Defined at:
  1441 ;;		line 16 in file "Scheduler/Task.c"
  1442 ;; Parameters:    Size  Location     Type
  1443 ;;		None
  1444 ;; Auto vars:     Size  Location     Type
  1445 ;;		None
  1446 ;; Return value:  Size  Location     Type
  1447 ;;                  1    wreg      void 
  1448 ;; Registers used:
  1449 ;;		wreg, status,2, status,0, btemp+1
  1450 ;; Tracked objects:
  1451 ;;		On entry : 0/0
  1452 ;;		On exit  : 0/0
  1453 ;;		Unchanged: 0/0
  1454 ;; Data sizes:     COMMON   BANK0   BANK1   BANK3   BANK2
  1455 ;;      Params:         0       0       0       0       0
  1456 ;;      Locals:         0       0       0       0       0
  1457 ;;      Temps:          0       0       0       0       0
  1458 ;;      Totals:         0       0       0       0       0
  1459 ;;Total ram usage:        0 bytes
  1460 ;; Hardware stack levels used:    1
  1461 ;; Hardware stack levels required when called:    4
  1462 ;; This function calls:
  1463 ;;		Nothing
  1464 ;; This function is called by:
  1465 ;;		_Scheduler_Update
  1466 ;; This function uses a non-reentrant model
  1467 ;;
  1468                           
  1469                           
  1470                           ;psect for function _Scheduler_Task2
  1471  028E                     _Scheduler_Task2:
  1472  028E                     l1234:	
  1473                           ;incstack = 0
  1474                           ; Regs used in _Scheduler_Task2: [wreg+status,2+status,0+btemp+1]
  1475                           
  1476                           
  1477                           ;Scheduler/Task.c: 18:     c++;
  1478  028E  3001               	movlw	1
  1479  028F  00FF               	movwf	btemp+1
  1480  0290  087F               	movf	btemp+1,w
  1481  0291  1283               	bcf	3,5	;RP0=0, select bank0
  1482  0292  1303               	bcf	3,6	;RP1=0, select bank0
  1483  0293  07C7               	addwf	_c,f
  1484  0294                     l194:
  1485  0294  0008               	return
  1486  0295                     __end_of_Scheduler_Task2:
  1487                           
  1488                           	psect	text6
  1489  0295                     __ptext6:	
  1490 ;; *************** function _Scheduler_Task1 *****************
  1491 ;; Defined at:
  1492 ;;		line 11 in file "Scheduler/Task.c"
  1493 ;; Parameters:    Size  Location     Type
  1494 ;;		None
  1495 ;; Auto vars:     Size  Location     Type
  1496 ;;		None
  1497 ;; Return value:  Size  Location     Type
  1498 ;;                  1    wreg      void 
  1499 ;; Registers used:
  1500 ;;		wreg, status,2, status,0, btemp+1
  1501 ;; Tracked objects:
  1502 ;;		On entry : 0/0
  1503 ;;		On exit  : 0/0
  1504 ;;		Unchanged: 0/0
  1505 ;; Data sizes:     COMMON   BANK0   BANK1   BANK3   BANK2
  1506 ;;      Params:         0       0       0       0       0
  1507 ;;      Locals:         0       0       0       0       0
  1508 ;;      Temps:          0       0       0       0       0
  1509 ;;      Totals:         0       0       0       0       0
  1510 ;;Total ram usage:        0 bytes
  1511 ;; Hardware stack levels used:    1
  1512 ;; Hardware stack levels required when called:    4
  1513 ;; This function calls:
  1514 ;;		Nothing
  1515 ;; This function is called by:
  1516 ;;		_Scheduler_Update
  1517 ;; This function uses a non-reentrant model
  1518 ;;
  1519                           
  1520                           
  1521                           ;psect for function _Scheduler_Task1
  1522  0295                     _Scheduler_Task1:
  1523  0295                     l1232:	
  1524                           ;incstack = 0
  1525                           ; Regs used in _Scheduler_Task1: [wreg+status,2+status,0+btemp+1]
  1526                           
  1527                           
  1528                           ;Scheduler/Task.c: 13:     c++;
  1529  0295  3001               	movlw	1
  1530  0296  00FF               	movwf	btemp+1
  1531  0297  087F               	movf	btemp+1,w
  1532  0298  1283               	bcf	3,5	;RP0=0, select bank0
  1533  0299  1303               	bcf	3,6	;RP1=0, select bank0
  1534  029A  07C7               	addwf	_c,f
  1535  029B                     l191:
  1536  029B  0008               	return
  1537  029C                     __end_of_Scheduler_Task1:
  1538                           
  1539                           	psect	text7
  1540  029C                     __ptext7:	
  1541 ;; *************** function _Scheduler_Task3 *****************
  1542 ;; Defined at:
  1543 ;;		line 21 in file "Scheduler/Task.c"
  1544 ;; Parameters:    Size  Location     Type
  1545 ;;		None
  1546 ;; Auto vars:     Size  Location     Type
  1547 ;;		None
  1548 ;; Return value:  Size  Location     Type
  1549 ;;                  1    wreg      void 
  1550 ;; Registers used:
  1551 ;;		wreg, status,2, status,0, btemp+1
  1552 ;; Tracked objects:
  1553 ;;		On entry : 0/0
  1554 ;;		On exit  : 0/0
  1555 ;;		Unchanged: 0/0
  1556 ;; Data sizes:     COMMON   BANK0   BANK1   BANK3   BANK2
  1557 ;;      Params:         0       0       0       0       0
  1558 ;;      Locals:         0       0       0       0       0
  1559 ;;      Temps:          0       0       0       0       0
  1560 ;;      Totals:         0       0       0       0       0
  1561 ;;Total ram usage:        0 bytes
  1562 ;; Hardware stack levels used:    1
  1563 ;; Hardware stack levels required when called:    4
  1564 ;; This function calls:
  1565 ;;		Nothing
  1566 ;; This function is called by:
  1567 ;;		_Scheduler_Update
  1568 ;; This function uses a non-reentrant model
  1569 ;;
  1570                           
  1571                           
  1572                           ;psect for function _Scheduler_Task3
  1573  029C                     _Scheduler_Task3:
  1574  029C                     l1236:	
  1575                           ;incstack = 0
  1576                           ; Regs used in _Scheduler_Task3: [wreg+status,2+status,0+btemp+1]
  1577                           
  1578                           
  1579                           ;Scheduler/Task.c: 23:     c++;
  1580  029C  3001               	movlw	1
  1581  029D  00FF               	movwf	btemp+1
  1582  029E  087F               	movf	btemp+1,w
  1583  029F  1283               	bcf	3,5	;RP0=0, select bank0
  1584  02A0  1303               	bcf	3,6	;RP1=0, select bank0
  1585  02A1  07C7               	addwf	_c,f
  1586  02A2                     l197:
  1587  02A2  0008               	return
  1588  02A3                     __end_of_Scheduler_Task3:
  1589                           
  1590                           	psect	text8
  1591  0267                     __ptext8:	
  1592 ;; *************** function _Scheduler_Init *****************
  1593 ;; Defined at:
  1594 ;;		line 10 in file "Scheduler/Scheduler.c"
  1595 ;; Parameters:    Size  Location     Type
  1596 ;;		None
  1597 ;; Auto vars:     Size  Location     Type
  1598 ;;		None
  1599 ;; Return value:  Size  Location     Type
  1600 ;;                  1    wreg      void 
  1601 ;; Registers used:
  1602 ;;		wreg, fsr0l, fsr0h, status,2, status,0, btemp+1, pclath, cstack
  1603 ;; Tracked objects:
  1604 ;;		On entry : 0/0
  1605 ;;		On exit  : 0/0
  1606 ;;		Unchanged: 0/0
  1607 ;; Data sizes:     COMMON   BANK0   BANK1   BANK3   BANK2
  1608 ;;      Params:         0       0       0       0       0
  1609 ;;      Locals:         0       0       0       0       0
  1610 ;;      Temps:          0       0       0       0       0
  1611 ;;      Totals:         0       0       0       0       0
  1612 ;;Total ram usage:        0 bytes
  1613 ;; Hardware stack levels used:    1
  1614 ;; Hardware stack levels required when called:    5
  1615 ;; This function calls:
  1616 ;;		_memset
  1617 ;; This function is called by:
  1618 ;;		_main
  1619 ;; This function uses a non-reentrant model
  1620 ;;
  1621                           
  1622                           
  1623                           ;psect for function _Scheduler_Init
  1624  0267                     _Scheduler_Init:
  1625  0267                     l1472:	
  1626                           ;incstack = 0
  1627                           ; Regs used in _Scheduler_Init: [wreg-fsr0h+status,2+status,0+btemp+1+pclath+cstack]
  1628                           
  1629                           
  1630                           ;Scheduler/Scheduler.c: 12:     memset(Task_Flag,0,sizeof(Task_Flag));
  1631  0267  3000               	movlw	0
  1632  0268  1283               	bcf	3,5	;RP0=0, select bank0
  1633  0269  1303               	bcf	3,6	;RP1=0, select bank0
  1634  026A  00BC               	movwf	memset@c
  1635  026B  00BD               	movwf	memset@c+1
  1636  026C  3003               	movlw	3
  1637  026D  00BE               	movwf	memset@n
  1638  026E  3000               	movlw	0
  1639  026F  00BF               	movwf	memset@n+1
  1640  0270  3051               	movlw	(low (_Task_Flag| 0))& (0+255)
  1641  0271  120A  118A  21CF  120A  118A  	fcall	_memset
  1642  0276                     l22:
  1643  0276  0008               	return
  1644  0277                     __end_of_Scheduler_Init:
  1645                           
  1646                           	psect	text9
  1647  01CF                     __ptext9:	
  1648 ;; *************** function _memset *****************
  1649 ;; Defined at:
  1650 ;;		line 8 in file "C:\Program Files (x86)\Microchip\xc8\v2.20\pic\sources\c90\common\memset.c"
  1651 ;; Parameters:    Size  Location     Type
  1652 ;;  p1              1    wreg     PTR void 
  1653 ;;		 -> Debounce_DownButton(3), Debounce_UpButton(3), Task_Flag(3), 
  1654 ;;  c               2   28[BANK0 ] int 
  1655 ;;  n               2   30[BANK0 ] unsigned int 
  1656 ;; Auto vars:     Size  Location     Type
  1657 ;;  p1              1    1[BANK1 ] PTR void 
  1658 ;;		 -> Debounce_DownButton(3), Debounce_UpButton(3), Task_Flag(3), 
  1659 ;;  p               1    0[BANK1 ] PTR unsigned char 
  1660 ;;		 -> Debounce_DownButton(3), Debounce_UpButton(3), Task_Flag(3), 
  1661 ;; Return value:  Size  Location     Type
  1662 ;;                  1    wreg      PTR void 
  1663 ;; Registers used:
  1664 ;;		wreg, fsr0l, fsr0h, status,2, status,0, btemp+1
  1665 ;; Tracked objects:
  1666 ;;		On entry : 0/0
  1667 ;;		On exit  : 0/0
  1668 ;;		Unchanged: 0/0
  1669 ;; Data sizes:     COMMON   BANK0   BANK1   BANK3   BANK2
  1670 ;;      Params:         0       4       0       0       0
  1671 ;;      Locals:         0       0       2       0       0
  1672 ;;      Temps:          0       0       0       0       0
  1673 ;;      Totals:         0       4       2       0       0
  1674 ;;Total ram usage:        6 bytes
  1675 ;; Hardware stack levels used:    1
  1676 ;; Hardware stack levels required when called:    4
  1677 ;; This function calls:
  1678 ;;		Nothing
  1679 ;; This function is called by:
  1680 ;;		_Scheduler_Init
  1681 ;;		_Buttons_Init
  1682 ;; This function uses a non-reentrant model
  1683 ;;
  1684                           
  1685                           
  1686                           ;psect for function _memset
  1687  01CF                     _memset:
  1688                           
  1689                           ;incstack = 0
  1690                           ; Regs used in _memset: [wreg-fsr0h+status,2+status,0+btemp+1]
  1691                           ;memset@p1 stored from wreg
  1692  01CF  1683               	bsf	3,5	;RP0=1, select bank1
  1693  01D0  1303               	bcf	3,6	;RP1=0, select bank1
  1694  01D1  00A1               	movwf	memset@p1^(0+128)
  1695  01D2                     l1464:
  1696  01D2  0821               	movf	memset@p1^(0+128),w
  1697  01D3  00FF               	movwf	btemp+1
  1698  01D4  087F               	movf	btemp+1,w
  1699  01D5  00A0               	movwf	memset@p^(0+128)
  1700  01D6  29E4               	goto	l1470
  1701  01D7                     l1466:
  1702  01D7  083C               	movf	memset@c,w
  1703  01D8  00FF               	movwf	btemp+1
  1704  01D9  1683               	bsf	3,5	;RP0=1, select bank1
  1705  01DA  1303               	bcf	3,6	;RP1=0, select bank1
  1706  01DB  0820               	movf	memset@p^(0+128),w
  1707  01DC  0084               	movwf	4
  1708  01DD  087F               	movf	btemp+1,w
  1709  01DE  1383               	bcf	3,7	;select IRP bank0
  1710  01DF  0080               	movwf	0
  1711  01E0                     l1468:
  1712  01E0  3001               	movlw	1
  1713  01E1  00FF               	movwf	btemp+1
  1714  01E2  087F               	movf	btemp+1,w
  1715  01E3  07A0               	addwf	memset@p^(0+128),f
  1716  01E4                     l1470:
  1717  01E4  3001               	movlw	1
  1718  01E5  1283               	bcf	3,5	;RP0=0, select bank0
  1719  01E6  1303               	bcf	3,6	;RP1=0, select bank0
  1720  01E7  02BE               	subwf	memset@n,f
  1721  01E8  3000               	movlw	0
  1722  01E9  1C03               	skipc
  1723  01EA  03BF               	decf	memset@n+1,f
  1724  01EB  02BF               	subwf	memset@n+1,f
  1725  01EC  0A3E               	incf	memset@n,w
  1726  01ED  1D03               	skipz
  1727  01EE  29F3               	goto	u1021
  1728  01EF  0A3F               	incf	memset@n+1,w
  1729  01F0  1D03               	btfss	3,2
  1730  01F1  29F3               	goto	u1021
  1731  01F2  29F4               	goto	u1020
  1732  01F3                     u1021:
  1733  01F3  29D7               	goto	l1466
  1734  01F4                     u1020:
  1735  01F4                     l786:
  1736  01F4  0008               	return
  1737  01F5                     __end_of_memset:
  1738                           
  1739                           	psect	text10
  1740  016D                     __ptext10:	
  1741 ;; *************** function _ISR *****************
  1742 ;; Defined at:
  1743 ;;		line 10 in file "Interrupt/Interrupt.c"
  1744 ;; Parameters:    Size  Location     Type
  1745 ;;		None
  1746 ;; Auto vars:     Size  Location     Type
  1747 ;;		None
  1748 ;; Return value:  Size  Location     Type
  1749 ;;                  1    wreg      void 
  1750 ;; Registers used:
  1751 ;;		wreg, fsr0l, fsr0h, status,2, status,0, btemp+1, pclath, cstack
  1752 ;; Tracked objects:
  1753 ;;		On entry : 0/0
  1754 ;;		On exit  : 0/0
  1755 ;;		Unchanged: 0/0
  1756 ;; Data sizes:     COMMON   BANK0   BANK1   BANK3   BANK2
  1757 ;;      Params:         0       0       0       0       0
  1758 ;;      Locals:         0       0       0       0       0
  1759 ;;      Temps:          0       4       0       0       0
  1760 ;;      Totals:         0       4       0       0       0
  1761 ;;Total ram usage:        4 bytes
  1762 ;; Hardware stack levels used:    1
  1763 ;; Hardware stack levels required when called:    3
  1764 ;; This function calls:
  1765 ;;		_EXTI_SettingButton_CB
  1766 ;;		_Timer0_CB
  1767 ;; This function is called by:
  1768 ;;		Interrupt level 1
  1769 ;; This function uses a non-reentrant model
  1770 ;;
  1771                           
  1772                           
  1773                           ;psect for function _ISR
  1774  016D                     _ISR:
  1775  016D                     i1l1338:
  1776                           
  1777                           ;Interrupt/Interrupt.c: 12:     if(INTCONbits.T0IF==1)
  1778  016D  1D0B               	btfss	11,2	;volatile
  1779  016E  2970               	goto	u76_21
  1780  016F  2971               	goto	u76_20
  1781  0170                     u76_21:
  1782  0170  2981               	goto	i1l175
  1783  0171                     u76_20:
  1784  0171                     i1l1340:
  1785                           
  1786                           ;Interrupt/Interrupt.c: 13:     {;Interrupt/Interrupt.c: 14:       TMR0=100;
  1787  0171  3064               	movlw	100
  1788  0172  0081               	movwf	1	;volatile
  1789  0173                     i1l1342:
  1790                           
  1791                           ;Interrupt/Interrupt.c: 15:       INTCONbits.T0IF=0;
  1792  0173  110B               	bcf	11,2	;volatile
  1793  0174                     i1l1344:
  1794                           
  1795                           ;Interrupt/Interrupt.c: 17:       Interrupt_CbStruct.Timer_CB();
  1796  0174  300A               	movlw	low (_Interrupt_CbStruct-__stringbase)
  1797  0175  0084               	movwf	4
  1798  0176  120A  118A  2256  120A  118A  	fcall	stringdir
  1799  017B  120A  118A  2033  120A  118A  	fcall	i1fptable
  1800                           
  1801                           ;Interrupt/Interrupt.c: 18:     }
  1802  0180  2992               	goto	i1l178
  1803  0181                     i1l175:	
  1804                           ;Interrupt/Interrupt.c: 19:     else if(INTCONbits.INTF==1)
  1805                           
  1806  0181  1C8B               	btfss	11,1	;volatile
  1807  0182  2984               	goto	u77_21
  1808  0183  2985               	goto	u77_20
  1809  0184                     u77_21:
  1810  0184  2992               	goto	i1l178
  1811  0185                     u77_20:
  1812  0185                     i1l1346:
  1813                           
  1814                           ;Interrupt/Interrupt.c: 20:     {;Interrupt/Interrupt.c: 21:       INTCONbits.INTF=0;
  1815  0185  108B               	bcf	11,1	;volatile
  1816  0186                     i1l1348:
  1817                           
  1818                           ;Interrupt/Interrupt.c: 22:       Interrupt_CbStruct.EXTI_CB();
  1819  0186  300B               	movlw	low (((_Interrupt_CbStruct+1)-__stringbase)| (0+32768))
  1820  0187  0084               	movwf	4
  1821  0188  120A  118A  2256  120A  118A  	fcall	stringdir
  1822  018D  120A  118A  2033  120A  118A  	fcall	i1fptable
  1823  0192                     i1l178:
  1824  0192  1283               	bcf	3,5	;RP0=0, select bank0
  1825  0193  1303               	bcf	3,6	;RP1=0, select bank0
  1826  0194  083B               	movf	??_ISR+3,w
  1827  0195  00FF               	movwf	btemp+1
  1828  0196  083A               	movf	??_ISR+2,w
  1829  0197  008A               	movwf	10
  1830  0198  0839               	movf	??_ISR+1,w
  1831  0199  0084               	movwf	4
  1832  019A  0E38               	swapf	??_ISR^0,w
  1833  019B  0083               	movwf	3
  1834  019C  0EFE               	swapf	btemp,f
  1835  019D  0E7E               	swapf	btemp,w
  1836  019E  0009               	retfie
  1837  019F                     __end_of_ISR:
  1838                           
  1839                           	psect	intentry
  1840  0004                     __pintentry:	
  1841                           ;incstack = 0
  1842                           ; Regs used in _ISR: [wreg-fsr0h+status,2+status,0+btemp+1+pclath+cstack]
  1843                           
  1844  0004                     interrupt_function:
  1845  007E                     saved_w	set	btemp
  1846  0004  00FE               	movwf	btemp
  1847  0005  0E03               	swapf	3,w
  1848  0006  1283               	bcf	3,5	;RP0=0, select bank0
  1849  0007  1303               	bcf	3,6	;RP1=0, select bank0
  1850  0008  00B8               	movwf	??_ISR
  1851  0009  0804               	movf	4,w
  1852  000A  00B9               	movwf	??_ISR+1
  1853  000B  080A               	movf	10,w
  1854  000C  00BA               	movwf	??_ISR+2
  1855  000D  087F               	movf	btemp+1,w
  1856  000E  00BB               	movwf	??_ISR+3
  1857  000F  120A  118A  296D   	ljmp	_ISR
  1858                           
  1859                           	psect	text11
  1860  01F5                     __ptext11:	
  1861 ;; *************** function _Timer0_CB *****************
  1862 ;; Defined at:
  1863 ;;		line 36 in file "Timer/Timer.c"
  1864 ;; Parameters:    Size  Location     Type
  1865 ;;		None
  1866 ;; Auto vars:     Size  Location     Type
  1867 ;;		None
  1868 ;; Return value:  Size  Location     Type
  1869 ;;                  1    wreg      void 
  1870 ;; Registers used:
  1871 ;;		wreg, fsr0l, fsr0h, status,2, status,0, btemp+1, pclath, cstack
  1872 ;; Tracked objects:
  1873 ;;		On entry : 0/0
  1874 ;;		On exit  : 0/0
  1875 ;;		Unchanged: 0/0
  1876 ;; Data sizes:     COMMON   BANK0   BANK1   BANK3   BANK2
  1877 ;;      Params:         0       0       0       0       0
  1878 ;;      Locals:         0       0       0       0       0
  1879 ;;      Temps:          0       0       0       0       0
  1880 ;;      Totals:         0       0       0       0       0
  1881 ;;Total ram usage:        0 bytes
  1882 ;; Hardware stack levels used:    1
  1883 ;; Hardware stack levels required when called:    2
  1884 ;; This function calls:
  1885 ;;		_Scheduler_Active
  1886 ;; This function is called by:
  1887 ;;		_ISR
  1888 ;; This function uses a non-reentrant model
  1889 ;;
  1890                           
  1891                           
  1892                           ;psect for function _Timer0_CB
  1893  01F5                     _Timer0_CB:
  1894  01F5                     i1l1278:	
  1895                           ;incstack = 0
  1896                           ; Regs used in _Timer0_CB: [wreg-fsr0h+status,2+status,0+btemp+1+pclath+cstack]
  1897                           
  1898  01F5  3001               	movlw	1
  1899  01F6  1283               	bcf	3,5	;RP0=0, select bank0
  1900  01F7  1303               	bcf	3,6	;RP1=0, select bank0
  1901  01F8  07C0               	addwf	_Tick,f
  1902  01F9  3000               	movlw	0
  1903  01FA  1803               	skipnc
  1904  01FB  3001               	movlw	1
  1905  01FC  07C1               	addwf	_Tick+1,f
  1906  01FD  3000               	movlw	0
  1907  01FE  1803               	skipnc
  1908  01FF  3001               	movlw	1
  1909  0200  07C2               	addwf	_Tick+2,f
  1910  0201  3000               	movlw	0
  1911  0202  1803               	skipnc
  1912  0203  3001               	movlw	1
  1913  0204  07C3               	addwf	_Tick+3,f
  1914  0205                     i1l1280:
  1915                           
  1916                           ;Timer/Timer.c: 38:     Scheduler_Active(Tick);
  1917  0205  0843               	movf	_Tick+3,w
  1918  0206  00B0               	movwf	Scheduler_Active@System_Tick+3
  1919  0207  0842               	movf	_Tick+2,w
  1920  0208  00AF               	movwf	Scheduler_Active@System_Tick+2
  1921  0209  0841               	movf	_Tick+1,w
  1922  020A  00AE               	movwf	Scheduler_Active@System_Tick+1
  1923  020B  0840               	movf	_Tick,w
  1924  020C  00AD               	movwf	Scheduler_Active@System_Tick
  1925  020D  120A  118A  203F  120A  118A  	fcall	_Scheduler_Active
  1926  0212                     i1l57:
  1927  0212  0008               	return
  1928  0213                     __end_of_Timer0_CB:
  1929                           
  1930                           	psect	text12
  1931  003F                     __ptext12:	
  1932 ;; *************** function _Scheduler_Active *****************
  1933 ;; Defined at:
  1934 ;;		line 33 in file "Scheduler/Scheduler.c"
  1935 ;; Parameters:    Size  Location     Type
  1936 ;;  System_Tick     4   13[BANK0 ] unsigned long 
  1937 ;; Auto vars:     Size  Location     Type
  1938 ;;  i               1   23[BANK0 ] unsigned char 
  1939 ;; Return value:  Size  Location     Type
  1940 ;;                  1    wreg      void 
  1941 ;; Registers used:
  1942 ;;		wreg, fsr0l, fsr0h, status,2, status,0, btemp+1, pclath, cstack
  1943 ;; Tracked objects:
  1944 ;;		On entry : 0/0
  1945 ;;		On exit  : 0/0
  1946 ;;		Unchanged: 0/0
  1947 ;; Data sizes:     COMMON   BANK0   BANK1   BANK3   BANK2
  1948 ;;      Params:         0       4       0       0       0
  1949 ;;      Locals:         0       1       0       0       0
  1950 ;;      Temps:          0       6       0       0       0
  1951 ;;      Totals:         0      11       0       0       0
  1952 ;;Total ram usage:       11 bytes
  1953 ;; Hardware stack levels used:    1
  1954 ;; Hardware stack levels required when called:    1
  1955 ;; This function calls:
  1956 ;;		___lldiv
  1957 ;;		___llmod
  1958 ;;		i1___bmul
  1959 ;; This function is called by:
  1960 ;;		_Timer0_CB
  1961 ;; This function uses a non-reentrant model
  1962 ;;
  1963                           
  1964                           
  1965                           ;psect for function _Scheduler_Active
  1966  003F                     _Scheduler_Active:
  1967  003F                     i1l1216:	
  1968                           ;incstack = 0
  1969                           ; Regs used in _Scheduler_Active: [wreg-fsr0h+status,2+status,0+btemp+1+pclath+cstack]
  1970                           
  1971                           
  1972                           ;Scheduler/Scheduler.c: 33: void Scheduler_Active(uint32_t System_Tick);Scheduler/Schedu
      +                          ler.c: 34: {;Scheduler/Scheduler.c: 35:     for(uint8_t i=0 ;i<(3UL);i++)
  1973  003F  1283               	bcf	3,5	;RP0=0, select bank0
  1974  0040  1303               	bcf	3,6	;RP1=0, select bank0
  1975  0041  01B7               	clrf	Scheduler_Active@i
  1976  0042                     i1l1222:
  1977                           
  1978                           ;Scheduler/Scheduler.c: 36:     {;Scheduler/Scheduler.c: 37:         if((System_Tick%(Ta
      +                          sks[i].Task_Peroid/(20UL))) ? 0:1)
  1979  0042  3000               	movlw	0
  1980  0043  00F6               	movwf	___lldiv@divisor+3
  1981  0044  3000               	movlw	0
  1982  0045  00F5               	movwf	___lldiv@divisor+2
  1983  0046  3000               	movlw	0
  1984  0047  00F4               	movwf	___lldiv@divisor+1
  1985  0048  3014               	movlw	20
  1986  0049  00F3               	movwf	___lldiv@divisor
  1987  004A  3003               	movlw	3
  1988  004B  00FF               	movwf	btemp+1
  1989  004C  087F               	movf	btemp+1,w
  1990  004D  00F0               	movwf	i1___bmul@multiplicand
  1991  004E  0837               	movf	Scheduler_Active@i,w
  1992  004F  120A  118A  2241  120A  118A  	fcall	i1___bmul
  1993  0054  3E01               	addlw	low ((_Tasks-__stringbase)| (0+32768))
  1994  0055  0084               	movwf	4
  1995  0056  120A  118A  2256  120A  118A  	fcall	stringdir
  1996  005B  1283               	bcf	3,5	;RP0=0, select bank0
  1997  005C  1303               	bcf	3,6	;RP1=0, select bank0
  1998  005D  00B1               	movwf	??_Scheduler_Active
  1999  005E  120A  118A  2256  120A  118A  	fcall	stringdir
  2000  0063  00B2               	movwf	??_Scheduler_Active+1
  2001  0064  0831               	movf	??_Scheduler_Active,w
  2002  0065  00B3               	movwf	??_Scheduler_Active+2
  2003  0066  0832               	movf	??_Scheduler_Active+1,w
  2004  0067  00B4               	movwf	??_Scheduler_Active+3
  2005  0068  01B5               	clrf	??_Scheduler_Active+4
  2006  0069  01B6               	clrf	??_Scheduler_Active+5
  2007  006A  0836               	movf	??_Scheduler_Active+5,w
  2008  006B  00FA               	movwf	___lldiv@dividend+3
  2009  006C  0835               	movf	??_Scheduler_Active+4,w
  2010  006D  00F9               	movwf	___lldiv@dividend+2
  2011  006E  0834               	movf	??_Scheduler_Active+3,w
  2012  006F  00F8               	movwf	___lldiv@dividend+1
  2013  0070  0833               	movf	??_Scheduler_Active+2,w
  2014  0071  00F7               	movwf	___lldiv@dividend
  2015  0072  120A  118A  20AF  120A  118A  	fcall	___lldiv
  2016  0077  0876               	movf	?___lldiv+3,w
  2017  0078  1283               	bcf	3,5	;RP0=0, select bank0
  2018  0079  1303               	bcf	3,6	;RP1=0, select bank0
  2019  007A  00A8               	movwf	___llmod@divisor+3
  2020  007B  0875               	movf	?___lldiv+2,w
  2021  007C  00A7               	movwf	___llmod@divisor+2
  2022  007D  0874               	movf	?___lldiv+1,w
  2023  007E  00A6               	movwf	___llmod@divisor+1
  2024  007F  0873               	movf	?___lldiv,w
  2025  0080  00A5               	movwf	___llmod@divisor
  2026  0081  0830               	movf	Scheduler_Active@System_Tick+3,w
  2027  0082  00AC               	movwf	___llmod@dividend+3
  2028  0083  082F               	movf	Scheduler_Active@System_Tick+2,w
  2029  0084  00AB               	movwf	___llmod@dividend+2
  2030  0085  082E               	movf	Scheduler_Active@System_Tick+1,w
  2031  0086  00AA               	movwf	___llmod@dividend+1
  2032  0087  082D               	movf	Scheduler_Active@System_Tick,w
  2033  0088  00A9               	movwf	___llmod@dividend
  2034  0089  120A  118A  2117  120A  118A  	fcall	___llmod
  2035  008E  1283               	bcf	3,5	;RP0=0, select bank0
  2036  008F  1303               	bcf	3,6	;RP1=0, select bank0
  2037  0090  0828               	movf	?___llmod+3,w
  2038  0091  0427               	iorwf	?___llmod+2,w
  2039  0092  0426               	iorwf	?___llmod+1,w
  2040  0093  0425               	iorwf	?___llmod,w
  2041  0094  1D03               	skipz
  2042  0095  2897               	goto	u63_21
  2043  0096  2898               	goto	u63_20
  2044  0097                     u63_21:
  2045  0097  289F               	goto	i1l1226
  2046  0098                     u63_20:
  2047  0098                     i1l1224:
  2048                           
  2049                           ;Scheduler/Scheduler.c: 38:         {;Scheduler/Scheduler.c: 39:             Task_Flag[i
      +                          ]=1;
  2050  0098  0837               	movf	Scheduler_Active@i,w
  2051  0099  3E51               	addlw	(low (_Task_Flag| 0))& (0+255)
  2052  009A  0084               	movwf	4
  2053  009B  1383               	bcf	3,7	;select IRP bank0
  2054  009C  0180               	clrf	0
  2055  009D  0A80               	incf	0,f
  2056                           
  2057                           ;Scheduler/Scheduler.c: 40:         }
  2058  009E  28A4               	goto	i1l1228
  2059  009F                     i1l1226:
  2060                           
  2061                           ;Scheduler/Scheduler.c: 42:         {;Scheduler/Scheduler.c: 43:           Task_Flag[i]=
      +                          0;
  2062  009F  0837               	movf	Scheduler_Active@i,w
  2063  00A0  3E51               	addlw	(low (_Task_Flag| 0))& (0+255)
  2064  00A1  0084               	movwf	4
  2065  00A2  1383               	bcf	3,7	;select IRP bank0
  2066  00A3  0180               	clrf	0
  2067  00A4                     i1l1228:
  2068                           
  2069                           ;Scheduler/Scheduler.c: 46:     }
  2070  00A4  3001               	movlw	1
  2071  00A5  00FF               	movwf	btemp+1
  2072  00A6  087F               	movf	btemp+1,w
  2073  00A7  07B7               	addwf	Scheduler_Active@i,f
  2074  00A8                     i1l1230:
  2075  00A8  3003               	movlw	3
  2076  00A9  0237               	subwf	Scheduler_Active@i,w
  2077  00AA  1C03               	skipc
  2078  00AB  28AD               	goto	u64_21
  2079  00AC  28AE               	goto	u64_20
  2080  00AD                     u64_21:
  2081  00AD  2842               	goto	i1l1222
  2082  00AE                     u64_20:
  2083  00AE                     i1l38:
  2084  00AE  0008               	return
  2085  00AF                     __end_of_Scheduler_Active:
  2086                           
  2087                           	psect	text13
  2088  0241                     __ptext13:	
  2089 ;; *************** function i1___bmul *****************
  2090 ;; Defined at:
  2091 ;;		line 4 in file "C:\Program Files (x86)\Microchip\xc8\v2.20\pic\sources\c90\common\Umul8.c"
  2092 ;; Parameters:    Size  Location     Type
  2093 ;;  multiplier      1    wreg     unsigned char 
  2094 ;;  multiplicand    1    0[COMMON] unsigned char 
  2095 ;; Auto vars:     Size  Location     Type
  2096 ;;  multiplier      1    2[COMMON] unsigned char 
  2097 ;;  product         1    1[COMMON] unsigned char 
  2098 ;; Return value:  Size  Location     Type
  2099 ;;                  1    wreg      unsigned char 
  2100 ;; Registers used:
  2101 ;;		wreg, status,2, status,0, btemp+1
  2102 ;; Tracked objects:
  2103 ;;		On entry : 0/0
  2104 ;;		On exit  : 0/0
  2105 ;;		Unchanged: 0/0
  2106 ;; Data sizes:     COMMON   BANK0   BANK1   BANK3   BANK2
  2107 ;;      Params:         1       0       0       0       0
  2108 ;;      Locals:         2       0       0       0       0
  2109 ;;      Temps:          0       0       0       0       0
  2110 ;;      Totals:         3       0       0       0       0
  2111 ;;Total ram usage:        3 bytes
  2112 ;; Hardware stack levels used:    1
  2113 ;; This function calls:
  2114 ;;		Nothing
  2115 ;; This function is called by:
  2116 ;;		_Scheduler_Active
  2117 ;; This function uses a non-reentrant model
  2118 ;;
  2119                           
  2120                           
  2121                           ;psect for function i1___bmul
  2122  0241                     i1___bmul:
  2123                           
  2124                           ;incstack = 0
  2125                           ; Regs used in i1___bmul: [wreg+status,2+status,0+btemp+1]
  2126                           ;i1___bmul@multiplier stored from wreg
  2127  0241  00F2               	movwf	i1___bmul@multiplier
  2128  0242                     i1l1192:
  2129  0242  01F1               	clrf	i1___bmul@product
  2130  0243                     i1l1194:
  2131  0243  1C72               	btfss	i1___bmul@multiplier,0
  2132  0244  2A46               	goto	u60_21
  2133  0245  2A47               	goto	u60_20
  2134  0246                     u60_21:
  2135  0246  2A4B               	goto	i1l1198
  2136  0247                     u60_20:
  2137  0247                     i1l1196:
  2138  0247  0870               	movf	i1___bmul@multiplicand,w
  2139  0248  00FF               	movwf	btemp+1
  2140  0249  087F               	movf	btemp+1,w
  2141  024A  07F1               	addwf	i1___bmul@product,f
  2142  024B                     i1l1198:
  2143  024B  1003               	clrc
  2144  024C  0DF0               	rlf	i1___bmul@multiplicand,f
  2145  024D                     i1l1200:
  2146  024D  1003               	clrc
  2147  024E  0CF2               	rrf	i1___bmul@multiplier,f
  2148  024F                     i1l1202:
  2149  024F  0872               	movf	i1___bmul@multiplier,w
  2150  0250  1D03               	btfss	3,2
  2151  0251  2A53               	goto	u61_21
  2152  0252  2A54               	goto	u61_20
  2153  0253                     u61_21:
  2154  0253  2A43               	goto	i1l1194
  2155  0254                     u61_20:
  2156  0254                     i1l1204:
  2157  0254  0871               	movf	i1___bmul@product,w
  2158  0255                     i1l358:
  2159  0255  0008               	return
  2160  0256                     __end_ofi1___bmul:
  2161                           
  2162                           	psect	text14
  2163  0117                     __ptext14:	
  2164 ;; *************** function ___llmod *****************
  2165 ;; Defined at:
  2166 ;;		line 5 in file "C:\Program Files (x86)\Microchip\xc8\v2.20\pic\sources\c90\common\llmod.c"
  2167 ;; Parameters:    Size  Location     Type
  2168 ;;  divisor         4    5[BANK0 ] unsigned long 
  2169 ;;  dividend        4    9[BANK0 ] unsigned long 
  2170 ;; Auto vars:     Size  Location     Type
  2171 ;;  counter         1   13[COMMON] unsigned char 
  2172 ;; Return value:  Size  Location     Type
  2173 ;;                  4    5[BANK0 ] unsigned long 
  2174 ;; Registers used:
  2175 ;;		wreg, status,2, status,0, btemp+1
  2176 ;; Tracked objects:
  2177 ;;		On entry : 0/0
  2178 ;;		On exit  : 0/0
  2179 ;;		Unchanged: 0/0
  2180 ;; Data sizes:     COMMON   BANK0   BANK1   BANK3   BANK2
  2181 ;;      Params:         0       8       0       0       0
  2182 ;;      Locals:         1       0       0       0       0
  2183 ;;      Temps:          1       0       0       0       0
  2184 ;;      Totals:         2       8       0       0       0
  2185 ;;Total ram usage:       10 bytes
  2186 ;; Hardware stack levels used:    1
  2187 ;; This function calls:
  2188 ;;		Nothing
  2189 ;; This function is called by:
  2190 ;;		_Scheduler_Active
  2191 ;; This function uses a non-reentrant model
  2192 ;;
  2193                           
  2194                           
  2195                           ;psect for function ___llmod
  2196  0117                     ___llmod:
  2197  0117                     i1l1170:	
  2198                           ;incstack = 0
  2199                           ; Regs used in ___llmod: [wreg+status,2+status,0+btemp+1]
  2200                           
  2201  0117  1283               	bcf	3,5	;RP0=0, select bank0
  2202  0118  1303               	bcf	3,6	;RP1=0, select bank0
  2203  0119  0828               	movf	___llmod@divisor+3,w
  2204  011A  0427               	iorwf	___llmod@divisor+2,w
  2205  011B  0426               	iorwf	___llmod@divisor+1,w
  2206  011C  0425               	iorwf	___llmod@divisor,w
  2207  011D  1903               	skipnz
  2208  011E  2920               	goto	u54_21
  2209  011F  2921               	goto	u54_20
  2210  0120                     u54_21:
  2211  0120  2964               	goto	i1l1188
  2212  0121                     u54_20:
  2213  0121                     i1l1172:
  2214  0121  01FD               	clrf	___llmod@counter
  2215  0122  0AFD               	incf	___llmod@counter,f
  2216  0123  2931               	goto	i1l1178
  2217  0124                     i1l1174:
  2218  0124  3001               	movlw	1
  2219  0125  00FC               	movwf	??___llmod
  2220  0126                     u55_25:
  2221  0126  1003               	clrc
  2222  0127  0DA5               	rlf	___llmod@divisor,f
  2223  0128  0DA6               	rlf	___llmod@divisor+1,f
  2224  0129  0DA7               	rlf	___llmod@divisor+2,f
  2225  012A  0DA8               	rlf	___llmod@divisor+3,f
  2226  012B  0BFC               	decfsz	??___llmod,f
  2227  012C  2926               	goto	u55_25
  2228  012D                     i1l1176:
  2229  012D  3001               	movlw	1
  2230  012E  00FF               	movwf	btemp+1
  2231  012F  087F               	movf	btemp+1,w
  2232  0130  07FD               	addwf	___llmod@counter,f
  2233  0131                     i1l1178:
  2234  0131  1FA8               	btfss	___llmod@divisor+3,7
  2235  0132  2934               	goto	u56_21
  2236  0133  2935               	goto	u56_20
  2237  0134                     u56_21:
  2238  0134  2924               	goto	i1l1174
  2239  0135                     u56_20:
  2240  0135                     i1l1180:
  2241  0135  0828               	movf	___llmod@divisor+3,w
  2242  0136  022C               	subwf	___llmod@dividend+3,w
  2243  0137  1D03               	skipz
  2244  0138  2943               	goto	u57_25
  2245  0139  0827               	movf	___llmod@divisor+2,w
  2246  013A  022B               	subwf	___llmod@dividend+2,w
  2247  013B  1D03               	skipz
  2248  013C  2943               	goto	u57_25
  2249  013D  0826               	movf	___llmod@divisor+1,w
  2250  013E  022A               	subwf	___llmod@dividend+1,w
  2251  013F  1D03               	skipz
  2252  0140  2943               	goto	u57_25
  2253  0141  0825               	movf	___llmod@divisor,w
  2254  0142  0229               	subwf	___llmod@dividend,w
  2255  0143                     u57_25:
  2256  0143  1C03               	skipc
  2257  0144  2946               	goto	u57_21
  2258  0145  2947               	goto	u57_20
  2259  0146                     u57_21:
  2260  0146  2955               	goto	i1l1184
  2261  0147                     u57_20:
  2262  0147                     i1l1182:
  2263  0147  0825               	movf	___llmod@divisor,w
  2264  0148  02A9               	subwf	___llmod@dividend,f
  2265  0149  0826               	movf	___llmod@divisor+1,w
  2266  014A  1C03               	skipc
  2267  014B  0F26               	incfsz	___llmod@divisor+1,w
  2268  014C  02AA               	subwf	___llmod@dividend+1,f
  2269  014D  0827               	movf	___llmod@divisor+2,w
  2270  014E  1C03               	skipc
  2271  014F  0F27               	incfsz	___llmod@divisor+2,w
  2272  0150  02AB               	subwf	___llmod@dividend+2,f
  2273  0151  0828               	movf	___llmod@divisor+3,w
  2274  0152  1C03               	skipc
  2275  0153  0F28               	incfsz	___llmod@divisor+3,w
  2276  0154  02AC               	subwf	___llmod@dividend+3,f
  2277  0155                     i1l1184:
  2278  0155  3001               	movlw	1
  2279  0156                     u58_25:
  2280  0156  1003               	clrc
  2281  0157  0CA8               	rrf	___llmod@divisor+3,f
  2282  0158  0CA7               	rrf	___llmod@divisor+2,f
  2283  0159  0CA6               	rrf	___llmod@divisor+1,f
  2284  015A  0CA5               	rrf	___llmod@divisor,f
  2285  015B  3EFF               	addlw	-1
  2286  015C  1D03               	skipz
  2287  015D  2956               	goto	u58_25
  2288  015E                     i1l1186:
  2289  015E  3001               	movlw	1
  2290  015F  02FD               	subwf	___llmod@counter,f
  2291  0160  1D03               	btfss	3,2
  2292  0161  2963               	goto	u59_21
  2293  0162  2964               	goto	u59_20
  2294  0163                     u59_21:
  2295  0163  2935               	goto	i1l1180
  2296  0164                     u59_20:
  2297  0164                     i1l1188:
  2298  0164  082C               	movf	___llmod@dividend+3,w
  2299  0165  00A8               	movwf	?___llmod+3
  2300  0166  082B               	movf	___llmod@dividend+2,w
  2301  0167  00A7               	movwf	?___llmod+2
  2302  0168  082A               	movf	___llmod@dividend+1,w
  2303  0169  00A6               	movwf	?___llmod+1
  2304  016A  0829               	movf	___llmod@dividend,w
  2305  016B  00A5               	movwf	?___llmod
  2306  016C                     i1l554:
  2307  016C  0008               	return
  2308  016D                     __end_of___llmod:
  2309                           
  2310                           	psect	text15
  2311  00AF                     __ptext15:	
  2312 ;; *************** function ___lldiv *****************
  2313 ;; Defined at:
  2314 ;;		line 5 in file "C:\Program Files (x86)\Microchip\xc8\v2.20\pic\sources\c90\common\__lldiv.c"
  2315 ;; Parameters:    Size  Location     Type
  2316 ;;  divisor         4    3[COMMON] unsigned long 
  2317 ;;  dividend        4    7[COMMON] unsigned long 
  2318 ;; Auto vars:     Size  Location     Type
  2319 ;;  quotient        4    0[BANK0 ] unsigned long 
  2320 ;;  counter         1    4[BANK0 ] unsigned char 
  2321 ;; Return value:  Size  Location     Type
  2322 ;;                  4    3[COMMON] unsigned long 
  2323 ;; Registers used:
  2324 ;;		wreg, status,2, status,0, btemp+1
  2325 ;; Tracked objects:
  2326 ;;		On entry : 0/0
  2327 ;;		On exit  : 0/0
  2328 ;;		Unchanged: 0/0
  2329 ;; Data sizes:     COMMON   BANK0   BANK1   BANK3   BANK2
  2330 ;;      Params:         8       0       0       0       0
  2331 ;;      Locals:         0       5       0       0       0
  2332 ;;      Temps:          1       0       0       0       0
  2333 ;;      Totals:         9       5       0       0       0
  2334 ;;Total ram usage:       14 bytes
  2335 ;; Hardware stack levels used:    1
  2336 ;; This function calls:
  2337 ;;		Nothing
  2338 ;; This function is called by:
  2339 ;;		_Scheduler_Active
  2340 ;; This function uses a non-reentrant model
  2341 ;;
  2342                           
  2343                           
  2344                           ;psect for function ___lldiv
  2345  00AF                     ___lldiv:
  2346  00AF                     i1l1144:	
  2347                           ;incstack = 0
  2348                           ; Regs used in ___lldiv: [wreg+status,2+status,0+btemp+1]
  2349                           
  2350  00AF  3000               	movlw	0
  2351  00B0  1283               	bcf	3,5	;RP0=0, select bank0
  2352  00B1  1303               	bcf	3,6	;RP1=0, select bank0
  2353  00B2  00A3               	movwf	___lldiv@quotient+3
  2354  00B3  3000               	movlw	0
  2355  00B4  00A2               	movwf	___lldiv@quotient+2
  2356  00B5  3000               	movlw	0
  2357  00B6  00A1               	movwf	___lldiv@quotient+1
  2358  00B7  3000               	movlw	0
  2359  00B8  00A0               	movwf	___lldiv@quotient
  2360  00B9  0876               	movf	___lldiv@divisor+3,w
  2361  00BA  0475               	iorwf	___lldiv@divisor+2,w
  2362  00BB  0474               	iorwf	___lldiv@divisor+1,w
  2363  00BC  0473               	iorwf	___lldiv@divisor,w
  2364  00BD  1903               	skipnz
  2365  00BE  28C0               	goto	u47_21
  2366  00BF  28C1               	goto	u47_20
  2367  00C0                     u47_21:
  2368  00C0  290E               	goto	i1l1166
  2369  00C1                     u47_20:
  2370  00C1                     i1l1146:
  2371  00C1  01A4               	clrf	___lldiv@counter
  2372  00C2  0AA4               	incf	___lldiv@counter,f
  2373  00C3  28D1               	goto	i1l1152
  2374  00C4                     i1l1148:
  2375  00C4  3001               	movlw	1
  2376  00C5  00FB               	movwf	??___lldiv
  2377  00C6                     u48_25:
  2378  00C6  1003               	clrc
  2379  00C7  0DF3               	rlf	___lldiv@divisor,f
  2380  00C8  0DF4               	rlf	___lldiv@divisor+1,f
  2381  00C9  0DF5               	rlf	___lldiv@divisor+2,f
  2382  00CA  0DF6               	rlf	___lldiv@divisor+3,f
  2383  00CB  0BFB               	decfsz	??___lldiv,f
  2384  00CC  28C6               	goto	u48_25
  2385  00CD                     i1l1150:
  2386  00CD  3001               	movlw	1
  2387  00CE  00FF               	movwf	btemp+1
  2388  00CF  087F               	movf	btemp+1,w
  2389  00D0  07A4               	addwf	___lldiv@counter,f
  2390  00D1                     i1l1152:
  2391  00D1  1FF6               	btfss	___lldiv@divisor+3,7
  2392  00D2  28D4               	goto	u49_21
  2393  00D3  28D5               	goto	u49_20
  2394  00D4                     u49_21:
  2395  00D4  28C4               	goto	i1l1148
  2396  00D5                     u49_20:
  2397  00D5                     i1l1154:
  2398  00D5  3001               	movlw	1
  2399  00D6  00FB               	movwf	??___lldiv
  2400  00D7                     u50_25:
  2401  00D7  1003               	clrc
  2402  00D8  0DA0               	rlf	___lldiv@quotient,f
  2403  00D9  0DA1               	rlf	___lldiv@quotient+1,f
  2404  00DA  0DA2               	rlf	___lldiv@quotient+2,f
  2405  00DB  0DA3               	rlf	___lldiv@quotient+3,f
  2406  00DC  0BFB               	decfsz	??___lldiv,f
  2407  00DD  28D7               	goto	u50_25
  2408  00DE                     i1l1156:
  2409  00DE  0876               	movf	___lldiv@divisor+3,w
  2410  00DF  027A               	subwf	___lldiv@dividend+3,w
  2411  00E0  1D03               	skipz
  2412  00E1  28EC               	goto	u51_25
  2413  00E2  0875               	movf	___lldiv@divisor+2,w
  2414  00E3  0279               	subwf	___lldiv@dividend+2,w
  2415  00E4  1D03               	skipz
  2416  00E5  28EC               	goto	u51_25
  2417  00E6  0874               	movf	___lldiv@divisor+1,w
  2418  00E7  0278               	subwf	___lldiv@dividend+1,w
  2419  00E8  1D03               	skipz
  2420  00E9  28EC               	goto	u51_25
  2421  00EA  0873               	movf	___lldiv@divisor,w
  2422  00EB  0277               	subwf	___lldiv@dividend,w
  2423  00EC                     u51_25:
  2424  00EC  1C03               	skipc
  2425  00ED  28EF               	goto	u51_21
  2426  00EE  28F0               	goto	u51_20
  2427  00EF                     u51_21:
  2428  00EF  28FF               	goto	i1l1162
  2429  00F0                     u51_20:
  2430  00F0                     i1l1158:
  2431  00F0  0873               	movf	___lldiv@divisor,w
  2432  00F1  02F7               	subwf	___lldiv@dividend,f
  2433  00F2  0874               	movf	___lldiv@divisor+1,w
  2434  00F3  1C03               	skipc
  2435  00F4  0F74               	incfsz	___lldiv@divisor+1,w
  2436  00F5  02F8               	subwf	___lldiv@dividend+1,f
  2437  00F6  0875               	movf	___lldiv@divisor+2,w
  2438  00F7  1C03               	skipc
  2439  00F8  0F75               	incfsz	___lldiv@divisor+2,w
  2440  00F9  02F9               	subwf	___lldiv@dividend+2,f
  2441  00FA  0876               	movf	___lldiv@divisor+3,w
  2442  00FB  1C03               	skipc
  2443  00FC  0F76               	incfsz	___lldiv@divisor+3,w
  2444  00FD  02FA               	subwf	___lldiv@dividend+3,f
  2445  00FE                     i1l1160:
  2446  00FE  1420               	bsf	___lldiv@quotient,0
  2447  00FF                     i1l1162:
  2448  00FF  3001               	movlw	1
  2449  0100                     u52_25:
  2450  0100  1003               	clrc
  2451  0101  0CF6               	rrf	___lldiv@divisor+3,f
  2452  0102  0CF5               	rrf	___lldiv@divisor+2,f
  2453  0103  0CF4               	rrf	___lldiv@divisor+1,f
  2454  0104  0CF3               	rrf	___lldiv@divisor,f
  2455  0105  3EFF               	addlw	-1
  2456  0106  1D03               	skipz
  2457  0107  2900               	goto	u52_25
  2458  0108                     i1l1164:
  2459  0108  3001               	movlw	1
  2460  0109  02A4               	subwf	___lldiv@counter,f
  2461  010A  1D03               	btfss	3,2
  2462  010B  290D               	goto	u53_21
  2463  010C  290E               	goto	u53_20
  2464  010D                     u53_21:
  2465  010D  28D5               	goto	i1l1154
  2466  010E                     u53_20:
  2467  010E                     i1l1166:
  2468  010E  0823               	movf	___lldiv@quotient+3,w
  2469  010F  00F6               	movwf	?___lldiv+3
  2470  0110  0822               	movf	___lldiv@quotient+2,w
  2471  0111  00F5               	movwf	?___lldiv+2
  2472  0112  0821               	movf	___lldiv@quotient+1,w
  2473  0113  00F4               	movwf	?___lldiv+1
  2474  0114  0820               	movf	___lldiv@quotient,w
  2475  0115  00F3               	movwf	?___lldiv
  2476  0116                     i1l368:
  2477  0116  0008               	return
  2478  0117                     __end_of___lldiv:
  2479                           
  2480                           	psect	text16
  2481  02A3                     __ptext16:	
  2482 ;; *************** function _EXTI_SettingButton_CB *****************
  2483 ;; Defined at:
  2484 ;;		line 45 in file "Buttons/Buttons.c"
  2485 ;; Parameters:    Size  Location     Type
  2486 ;;		None
  2487 ;; Auto vars:     Size  Location     Type
  2488 ;;		None
  2489 ;; Return value:  Size  Location     Type
  2490 ;;                  1    wreg      void 
  2491 ;; Registers used:
  2492 ;;		None
  2493 ;; Tracked objects:
  2494 ;;		On entry : 0/0
  2495 ;;		On exit  : 0/0
  2496 ;;		Unchanged: 0/0
  2497 ;; Data sizes:     COMMON   BANK0   BANK1   BANK3   BANK2
  2498 ;;      Params:         0       0       0       0       0
  2499 ;;      Locals:         0       0       0       0       0
  2500 ;;      Temps:          0       0       0       0       0
  2501 ;;      Totals:         0       0       0       0       0
  2502 ;;Total ram usage:        0 bytes
  2503 ;; Hardware stack levels used:    1
  2504 ;; This function calls:
  2505 ;;		Nothing
  2506 ;; This function is called by:
  2507 ;;		_ISR
  2508 ;; This function uses a non-reentrant model
  2509 ;;
  2510                           
  2511                           
  2512                           ;psect for function _EXTI_SettingButton_CB
  2513  02A3                     _EXTI_SettingButton_CB:
  2514  02A3                     i1l1282:	
  2515                           ;incstack = 0
  2516                           ; Regs used in _EXTI_SettingButton_CB: []
  2517                           
  2518                           
  2519                           ;Buttons/Buttons.c: 47:     ButtonsFlag.SettingButton_Flag=1;
  2520  02A3  1283               	bcf	3,5	;RP0=0, select bank0
  2521  02A4  1303               	bcf	3,6	;RP1=0, select bank0
  2522  02A5  154A               	bsf	_ButtonsFlag,2
  2523  02A6                     i1l84:
  2524  02A6  0008               	return
  2525  02A7                     __end_of_EXTI_SettingButton_CB:
  2526  0004                     
  2527                           	psect	functab
  2528  0022                     __pfunctab:
  2529  0022                     __fptable:
  2530  0022                     fptable:
  2531  0022  00FF               	movwf	(btemp+1)& (0+127)
  2532  0023  3000               	movlw	high fptable
  2533  0024  008A               	movwf	10
  2534  0025  087F               	movf	(btemp+1)& (0+127),w
  2535  0026  0782               	addwf	2,f
  2536  0027                     fpbase:
  2537  0027  2827               	goto	fpbase	; Call via a null pointer and you will get stuck here.
  2538  0028                     fp_u0:
  2539  0028  2828               	ljmp	fp_u0	; unused
  2540  0029                     fp_u1:
  2541  0029  2829               	ljmp	fp_u1	; unused
  2542  002A                     fp__Scheduler_Task3:
  2543  002A  120A  118A  2A9C   	ljmp	_Scheduler_Task3
  2544  002D                     fp__Scheduler_Task1:
  2545  002D  120A  118A  2A95   	ljmp	_Scheduler_Task1
  2546  0030                     fp__Scheduler_Task2:
  2547  0030  120A  118A  2A8E   	ljmp	_Scheduler_Task2
  2548  0033                     __end_of__fptable:
  2549  0033                     __i1fptable:
  2550  0033                     i1fptable:
  2551  0033  00FF               	movwf	(btemp+1)& (0+127)
  2552  0034  3000               	movlw	high i1fptable
  2553  0035  008A               	movwf	10
  2554  0036  087F               	movf	(btemp+1)& (0+127),w
  2555  0037  0782               	addwf	2,f
  2556  0038                     i1fpbase:
  2557  0038  2838               	goto	i1fpbase	; Call via a null pointer and you will get stuck here.
  2558  0039                     fp__EXTI_SettingButton_CB:
  2559  0039  120A  118A  2AA3   	ljmp	_EXTI_SettingButton_CB
  2560  003C                     fp__Timer0_CB:
  2561  003C  120A  118A  29F5   	ljmp	_Timer0_CB
  2562  003F                     __end_of__i1fptable:
  2563  007E                     btemp	set	126	;btemp
  2564  007E                     wtemp0	set	126
  2565                           
  2566                           	psect	config
  2567                           
  2568                           ;Config register CONFIG @ 0x2007
  2569                           ;	Oscillator Selection bits
  2570                           ;	FOSC = HS, HS oscillator
  2571                           ;	Watchdog Timer Enable bit
  2572                           ;	WDTE = OFF, WDT disabled
  2573                           ;	Power-up Timer Enable bit
  2574                           ;	PWRTE = OFF, PWRT disabled
  2575                           ;	Brown-out Reset Enable bit
  2576                           ;	BOREN = OFF, BOR disabled
  2577                           ;	Low-Voltage (Single-Supply) In-Circuit Serial Programming Enable bit
  2578                           ;	LVP = OFF, RB3 is digital I/O, HV on MCLR must be used for programming
  2579                           ;	Data EEPROM Memory Code Protection bit
  2580                           ;	CPD = OFF, Data EEPROM code protection off
  2581                           ;	Flash Program Memory Write Enable bits
  2582                           ;	WRT = OFF, Write protection off; all program memory may be written to by EECON control
  2583                           ;	In-Circuit Debugger Mode bit
  2584                           ;	DEBUG = 0x1, unprogrammed default
  2585                           ;	Flash Program Memory Code Protection bit
  2586                           ;	CP = OFF, Code protection off
  2587  2007                     	org	8199
  2588  2007  3F3A               	dw	16186

Data Sizes:
    Strings     0
    Constant    11
    Data        0
    BSS         20
    Persistent  0
    Stack       0

Auto Spaces:
    Space          Size  Autos    Used
    COMMON           14     14      14
    BANK0            80     32      52
    BANK1            80      2       2
    BANK3            96      0       0
    BANK2            96      0       0

Pointer List with Targets:

    memset@p1	PTR void  size(1) Largest target is 3
		 -> Debounce_DownButton(BANK0[3]), Debounce_UpButton(BANK0[3]), Task_Flag(BANK0[3]), 

    memset@p	PTR unsigned char  size(1) Largest target is 3
		 -> Debounce_DownButton(BANK0[3]), Debounce_UpButton(BANK0[3]), Task_Flag(BANK0[3]), 

    S254Interrupt_CbStruct_T$EXTI_CB	PTR FTN()void  size(1) Largest target is 1
		 -> EXTI_SettingButton_CB(), 

    Interrupt_CbStruct.EXTI_CB	PTR FTN()void  size(1) Largest target is 1
		 -> EXTI_SettingButton_CB(), 

    S254Interrupt_CbStruct_T$Timer_CB	PTR FTN()void  size(1) Largest target is 1
		 -> Timer0_CB(), 

    Interrupt_CbStruct.Timer_CB	PTR FTN()void  size(1) Largest target is 1
		 -> Timer0_CB(), 

    S52Tasks_T$Task	PTR FTN()void  size(1) Largest target is 1
		 -> Scheduler_Task3(), Scheduler_Task2(), Scheduler_Task1(), 

    Tasks.Task	PTR FTN()void  size(1) Largest target is 1
		 -> Scheduler_Task3(), Scheduler_Task2(), Scheduler_Task1(), 

    sp__memset	PTR void  size(1) Largest target is 3
		 -> Debounce_DownButton(BANK0[3]), Debounce_UpButton(BANK0[3]), Task_Flag(BANK0[3]), 


Critical Paths under _main in COMMON

    None.

Critical Paths under _ISR in COMMON

    _Scheduler_Active->___llmod
    ___llmod->___lldiv
    ___lldiv->i1___bmul

Critical Paths under _main in BANK0

    _main->_Scheduler_Update
    _Scheduler_Update->___bmul
    _Scheduler_Init->_memset

Critical Paths under _ISR in BANK0

    _Timer0_CB->_Scheduler_Active
    _Scheduler_Active->___llmod
    ___llmod->___lldiv

Critical Paths under _main in BANK1

    _Scheduler_Init->_memset

Critical Paths under _ISR in BANK1

    None.

Critical Paths under _main in BANK3

    None.

Critical Paths under _ISR in BANK3

    None.

Critical Paths under _main in BANK2

    None.

Critical Paths under _ISR in BANK2

    None.

Call Graph Tables:

 ---------------------------------------------------------------------------------
 (Depth) Function   	        Calls       Base Space   Used Autos Params    Refs
 ---------------------------------------------------------------------------------
 (0) _main                                                 0     0      0    1150
                     _Scheduler_Init
                   _Scheduler_Update
                         _Timer_Init
                        _Timer_Start
 ---------------------------------------------------------------------------------
 (1) _Timer_Start                                          0     0      0       0
 ---------------------------------------------------------------------------------
 (1) _Timer_Init                                           0     0      0       0
 ---------------------------------------------------------------------------------
 (1) _Scheduler_Update                                     1     1      0     215
                                             31 BANK0      1     1      0
                    _Scheduler_Task1 *
                    _Scheduler_Task2 *
                    _Scheduler_Task3 *
                             ___bmul
 ---------------------------------------------------------------------------------
 (2) ___bmul                                               3     2      1     125
                                             28 BANK0      3     2      1
 ---------------------------------------------------------------------------------
 (2) _Scheduler_Task3                                      0     0      0       0
 ---------------------------------------------------------------------------------
 (2) _Scheduler_Task2                                      0     0      0       0
 ---------------------------------------------------------------------------------
 (2) _Scheduler_Task1                                      0     0      0       0
 ---------------------------------------------------------------------------------
 (1) _Scheduler_Init                                       0     0      0     935
                             _memset
 ---------------------------------------------------------------------------------
 (2) _memset                                               6     2      4     935
                                             28 BANK0      4     0      4
                                              0 BANK1      2     2      0
 ---------------------------------------------------------------------------------
 Estimated maximum stack depth 2
 ---------------------------------------------------------------------------------
 (Depth) Function   	        Calls       Base Space   Used Autos Params    Refs
 ---------------------------------------------------------------------------------
 (3) _ISR                                                  4     4      0     922
                                             24 BANK0      4     4      0
              _EXTI_SettingButton_CB *
                          _Timer0_CB *
 ---------------------------------------------------------------------------------
 (4) _Timer0_CB                                            0     0      0     922
                   _Scheduler_Active
 ---------------------------------------------------------------------------------
 (5) _Scheduler_Active                                    11     7      4     922
                                             13 BANK0     11     7      4
                            ___lldiv
                            ___llmod
                           i1___bmul
 ---------------------------------------------------------------------------------
 (6) i1___bmul                                             3     2      1      87
                                              0 COMMON     3     2      1
 ---------------------------------------------------------------------------------
 (6) ___llmod                                             10     2      8     311
                                             12 COMMON     2     2      0
                                              5 BANK0      8     0      8
                            ___lldiv (ARG)
                           i1___bmul (ARG)
 ---------------------------------------------------------------------------------
 (6) ___lldiv                                             14     6      8     314
                                              3 COMMON     9     1      8
                                              0 BANK0      5     5      0
                           i1___bmul (ARG)
 ---------------------------------------------------------------------------------
 (4) _EXTI_SettingButton_CB                                0     0      0       0
 ---------------------------------------------------------------------------------
 Estimated maximum stack depth 6
 ---------------------------------------------------------------------------------

 Call Graph Graphs:

 _main (ROOT)
   _Scheduler_Init
     _memset
   _Scheduler_Update
     _Scheduler_Task1 *
     _Scheduler_Task2 *
     _Scheduler_Task3 *
     ___bmul *
   _Timer_Init
   _Timer_Start

 _ISR (ROOT)
   _EXTI_SettingButton_CB *
   _Timer0_CB *
     _Scheduler_Active
       ___lldiv
         i1___bmul (ARG)
       ___llmod
         ___lldiv (ARG)
           i1___bmul (ARG)
         i1___bmul (ARG)
       i1___bmul

 Address spaces:
Name               Size   Autos  Total    Cost      Usage
BITCOMMON            E      0       0       0        0.0%
EEDATA             100      0       0       0        0.0%
NULL                 0      0       0       0        0.0%
CODE                 0      0       0       0        0.0%
COMMON               E      E       E       1      100.0%
BITSFR0              0      0       0       1        0.0%
SFR0                 0      0       0       1        0.0%
BITSFR1              0      0       0       2        0.0%
SFR1                 0      0       0       2        0.0%
STACK                0      0       0       2        0.0%
ABS                  0      0      44       3        0.0%
BITBANK0            50      0       0       4        0.0%
BITSFR3              0      0       0       4        0.0%
SFR3                 0      0       0       4        0.0%
BANK0               50     20      34       5       65.0%
BITSFR2              0      0       0       5        0.0%
SFR2                 0      0       0       5        0.0%
BITBANK1            50      0       0       6        0.0%
BANK1               50      2       2       7        2.5%
BITBANK3            60      0       0       8        0.0%
BANK3               60      0       0       9        0.0%
BITBANK2            60      0       0      10        0.0%
BANK2               60      0       0      11        0.0%
DATA                 0      0      44      12        0.0%


Microchip Technology PIC Macro Assembler V2.20 build 20200408173844 
Symbol Table                                                                                   Tue Jul 21 02:03:17 2020

                             _c 0047                               pc 0002                  ___bmul@product 003D  
                            l13 0227                              l22 0276                              l25 019F  
                            l51 0285                              l54 02A8                              fsr 0004  
                           l191 029B                             l194 0294                             l197 02A2  
                           l358 0240                             l786 01F4                             _ISR 016D  
                           u650 0232                             u651 0231                             u660 023F  
                           u661 023E                             u670 01AB                             u671 01AA  
                           u680 01CD                             u681 01CC                             fsr0 0004  
                           indf 0000                            ?_ISR 0070                            l1232 0295  
                          l1240 022E                            l1234 028E                            l1250 023F  
                          l1242 0232                            l1236 029C                            l1244 0236  
                          l1246 0238                            l1238 022D                            l1270 01A2  
                          l1254 0277                            l1262 02A7                            l1248 023A  
                          l1272 01AB                            l1264 019F                            l1256 0280  
                          l1274 01C1                            l1258 0284                            l1276 01C7  
                          l1470 01E4                            l1464 01D2                            l1472 0267  
                          l1480 0222                            l1466 01D7                            l1474 0213  
                          l1468 01E0                            l1476 0218                            l1478 021D  
                          u1020 01F4                            u1021 01F3                            _MODE 0049  
                          i1l38 00AE                            i1l57 0212                            i1l84 02A6  
                          _TMR0 0001                            _Tick 0040                            _main 0213  
                          fp_u0 0028                            fp_u1 0029                            btemp 007E  
                          start 0012               ___bmul@multiplier 003E                ??_Scheduler_Init 0040  
                         ??_ISR 0038                           ?_main 0070                 __end_of___lldiv 0117  
               __end_of___llmod 016D                           i1l175 0181                           i1l178 0192  
                         i1l358 0255                           i1l368 0116                           i1l554 016C  
                         u50_25 00D7                           u51_20 00F0                           u51_21 00EF  
                         _PORTB 0006                           u51_25 00EC                           u60_20 0247  
                         u60_21 0246                           u52_25 0100                           u53_20 010E  
                         u61_20 0254                           u53_21 010D                           u61_21 0253  
                         u54_20 0121                           u54_21 0120                           u47_20 00C1  
                         u63_20 0098                           u47_21 00C0                           u63_21 0097  
                         u55_25 0126                           u56_20 0135                           u64_20 00AE  
                         u56_21 0134                           u64_21 00AD                           u48_25 00C6  
                         u49_20 00D5                           u57_20 0147                           u49_21 00D4  
                         u57_21 0146                           _TRISA 0085                           _TRISB 0086  
                         u57_25 0143                           _TRISD 0088                           u58_25 0156  
                         u59_20 0164                           u59_21 0163                           u76_20 0171  
                         u76_21 0170                           u77_20 0185                           u77_21 0184  
                         _Clock 0044                           _Tasks 025C                           fpbase 0027  
              __end_ofi1___bmul 0256                           pclath 000A                           status 0003  
                         wtemp0 007E                 __initialization 0015               ??_Scheduler_Task1 003C  
             ??_Scheduler_Task2 003C               ??_Scheduler_Task3 003C                    __end_of_main 022A  
Buttons_Update@Debounce_Counter 0048                          ??_main 0040                ___llmod@dividend 0029  
                        i1l1200 024D                          i1l1202 024F                          i1l1204 0254  
                        i1l1150 00CD                          i1l1230 00A8                          i1l1222 0042  
                        i1l1160 00FE                          i1l1152 00D1                          i1l1144 00AF  
                        i1l1224 0098                          i1l1216 003F                          i1l1162 00FF  
                        i1l1154 00D5                          i1l1146 00C1                          i1l1170 0117  
                        i1l1226 009F                          i1l1164 0108                          i1l1156 00DE  
                        i1l1148 00C4                          i1l1180 0135                          i1l1172 0121  
                        i1l1228 00A4                          i1l1340 0171                          i1l1158 00F0  
                        i1l1166 010E                          i1l1182 0147                          i1l1174 0124  
                        i1l1342 0173                          i1l1184 0155                          i1l1176 012D  
                        i1l1192 0242                          i1l1280 0205                          i1l1344 0174  
                        i1l1282 02A3                          i1l1186 015E                          i1l1178 0131  
                        i1l1194 0243                          i1l1346 0185                          i1l1338 016D  
                        i1l1188 0164                          i1l1196 0247                          i1l1348 0186  
                        i1l1198 024B                          i1l1278 01F5                      __i1fptable 0033  
              __end_of__fptable 0033           _EXTI_SettingButton_CB 02A3                          ___bmul 022A  
                     ??___lldiv 007B                       ??___llmod 007C                      _Timer_Init 0277  
                        _memset 01CF              __size_of_Timer0_CB 001E                   ??_Timer_Start 003C  
                        fptable 0022                          fptotal 0006                          saved_w 007E  
       __end_of__initialization 001E               ?_Scheduler_Active 002D             ___bmul@multiplicand 003C  
            ??_Scheduler_Active 0031                  __pcstackCOMMON 0070               ?_Scheduler_Update 0070  
                 __end_of_Tasks 0265              ??_Scheduler_Update 003F                       ?i1___bmul 0070  
                   _ButtonsFlag 004A                  _OPTION_REGbits 0081                i1___bmul@product 0071  
           __end_of_Timer_Start 02A9                      __pbssBANK0 0040          ?_EXTI_SettingButton_CB 0070  
             __end_of_Timer0_CB 0213                      __pmaintext 0213                         ?___bmul 003C  
             Scheduler_Active@i 0037                      __pintentry 0004                     ?_Timer_Init 0070  
                       ?_memset 003C                      ??i1___bmul 0071                      __stringtab 0256  
               _Scheduler_Task1 0295                 _Scheduler_Task2 028E                 _Scheduler_Task3 029C  
             Scheduler_Update@i 003F                         i1fpbase 0038                 __size_of___bmul 0017  
                       ___lldiv 00AF                         ___llmod 0117                 __size_of_memset 0026  
                       __ptext1 02A7                         __ptext2 0277                         __ptext3 019F  
                       __ptext4 022A                         __ptext5 028E                         __ptext6 0295  
                       __ptext7 029C                         __ptext8 0267                         __ptext9 01CF  
           __size_of__i1fptable 000C                    __size_of_ISR 0032                     _Timer_Start 02A7  
           i1___bmul@multiplier 0072                         clrloop0 0287            end_of_initialization 001E  
           __size_of_Timer_Init 000F                         memset@c 003C                         memset@n 003E  
                       memset@p 00A0                 ___lldiv@divisor 0073                 ___lldiv@counter 0024  
       __size_of_Scheduler_Init 0010         __end_of_Scheduler_Task1 029C         __end_of_Scheduler_Task2 0295  
       __end_of_Scheduler_Task3 02A3                  __end_of___bmul 0241                  __end_of_memset 01F5  
     __size_of_Scheduler_Active 0070               __size_ofi1___bmul 0015             start_initialization 0015  
                   __end_of_ISR 019F       __size_of_Scheduler_Update 0030         ??_EXTI_SettingButton_CB 0070  
               ___llmod@divisor 0025                 ___llmod@counter 007D                       _Task_Flag 0051  
                     _Timer0_CB 01F5                        ??___bmul 003D                    ??_Timer_Init 003C  
                      ??_memset 0040              __end_of__i1fptable 003F                       ___latbits 0002  
                 __pcstackBANK0 0020                   __pcstackBANK1 00A0                ?_Scheduler_Task1 0070  
              ?_Scheduler_Task2 0070                ?_Scheduler_Task3 0070               __size_of__fptable 0011  
            __end_of_Timer_Init 0286                      ?_Timer0_CB 0070      __end_of_Interrupt_CbStruct 0267  
                     __pfunctab 0022                        ?___lldiv 0073                        ?___llmod 0025  
                     __pstrings 0256                    ?_Timer_Start 0070                  _Scheduler_Init 0267  
             interrupt_function 0004                       clear_ram0 0286           i1___bmul@multiplicand 0070  
        __end_of_Scheduler_Init 0277                        i1___bmul 0241                     __stringbase 025B  
              _Scheduler_Active 003F               _Debounce_UpButton 004E                _Scheduler_Update 019F  
                      i1fptable 0033                        i1fptotal 0004                     ??_Timer0_CB 007E  
              __size_of___lldiv 0068                __size_of___llmod 0056                 ?_Scheduler_Init 0070  
            __end_of__stringtab 025C                        __fptable 0022                        __ptext10 016D  
                      __ptext11 01F5                        __ptext12 003F                        __ptext13 0241  
                      __ptext14 0117                        __ptext15 00AF                        __ptext16 02A3  
__size_of_EXTI_SettingButton_CB 0004   __end_of_EXTI_SettingButton_CB 02A7                   __size_of_main 0017  
                    _INTCONbits 000B            __size_of_Timer_Start 0002                        memset@p1 00A1  
                  fp__Timer0_CB 003C                        intlevel1 0022                ___lldiv@dividend 0077  
                     stringcode 0256              _Interrupt_CbStruct 0265     Scheduler_Active@System_Tick 002D  
              ___lldiv@quotient 0020                        stringdir 0256                        stringtab 0256  
      __size_of_Scheduler_Task1 0007        __size_of_Scheduler_Task2 0007        __size_of_Scheduler_Task3 0007  
            fp__Scheduler_Task1 002D              fp__Scheduler_Task2 0030              fp__Scheduler_Task3 002A  
      __end_of_Scheduler_Active 00AF             _Debounce_DownButton 004B        fp__EXTI_SettingButton_CB 0039  
      __end_of_Scheduler_Update 01CF  
