

Microchip MPLAB XC8 Assembler V2.20 build 20200408173844 
                                                                                               Tue Jul 21 22:42:15 2020

Microchip MPLAB XC8 C Compiler v2.20 (Free license) build 20200408173844 Og1 
     1                           	processor	16F877A
     2                           	pagewidth 120
     3                           	opt	flic
     4                           	psect	strings,global,class=STRING,delta=2,noexec
     5                           	psect	cinit,global,class=CODE,merge=1,delta=2
     6                           	psect	bssCOMMON,global,class=COMMON,space=1,delta=1,noexec
     7                           	psect	bssBANK0,global,class=BANK0,space=1,delta=1,noexec
     8                           	psect	clrtext,global,class=CODE,delta=2
     9                           	psect	cstackCOMMON,global,class=COMMON,space=1,delta=1,noexec
    10                           	psect	cstackBANK0,global,class=BANK0,space=1,delta=1,noexec
    11                           	psect	maintext,global,class=CODE,split=1,delta=2
    12                           	psect	text1,local,class=CODE,merge=1,delta=2
    13                           	psect	text2,local,class=CODE,merge=1,delta=2
    14                           	psect	text3,local,class=CODE,merge=1,delta=2
    15                           	psect	text4,local,class=CODE,merge=1,delta=2
    16                           	psect	text5,local,class=CODE,merge=1,delta=2
    17                           	psect	text6,local,class=CODE,merge=1,delta=2
    18                           	psect	text7,local,class=CODE,merge=1,delta=2,group=1
    19                           	psect	text8,local,class=CODE,merge=1,delta=2,group=1
    20                           	psect	text9,local,class=CODE,merge=1,delta=2
    21                           	psect	text10,local,class=CODE,merge=1,delta=2
    22                           	psect	text11,local,class=CODE,merge=1,delta=2,group=2
    23                           	psect	text12,local,class=CODE,merge=1,delta=2
    24                           	psect	intentry,global,class=CODE,delta=2
    25                           	psect	text13,local,class=CODE,merge=1,delta=2
    26                           	psect	text14,local,class=CODE,merge=1,delta=2
    27                           	psect	text15,local,class=CODE,merge=1,delta=2,group=1
    28                           	psect	text16,local,class=CODE,merge=1,delta=2,group=1
    29                           	psect	text17,local,class=CODE,merge=1,delta=2
    30                           	psect	text18,local,class=CODE,merge=1,delta=2
    31                           	psect	text19,local,class=CODE,merge=1,delta=2
    32                           	psect	text20,local,class=CODE,merge=1,delta=2
    33                           	psect	text21,local,class=CODE,merge=1,delta=2
    34                           	psect	text22,local,class=CODE,merge=1,delta=2
    35                           	psect	text23,local,class=CODE,merge=1,delta=2
    36                           	psect	text24,local,class=CODE,merge=1,delta=2
    37                           	psect	text25,local,class=CODE,merge=1,delta=2
    38                           	psect	text26,local,class=CODE,merge=1,delta=2
    39                           	psect	text27,local,class=CODE,merge=1,delta=2
    40                           	psect	text28,local,class=CODE,merge=1,delta=2
    41                           	psect	text29,local,class=CODE,merge=1,delta=2
    42                           	psect	text30,local,class=CODE,merge=1,delta=2
    43                           	psect	text31,local,class=CODE,merge=1,delta=2
    44                           	psect	text32,local,class=CODE,merge=1,delta=2
    45                           	psect	text33,local,class=CODE,merge=1,delta=2
    46                           	psect	functab,global,class=ENTRY,delta=2
    47                           	psect	config,global,abs,ovrld,class=CONFIG,space=4,delta=2,noexec
    48                           	dabs	1,0x7E,2
    49  0000                     
    50                           ; Version 2.20
    51                           ; Generated 12/02/2020 GMT
    52                           ; 
    53                           ; Copyright © 2020, Microchip Technology Inc. and its subsidiaries ("Microchip")
    54                           ; All rights reserved.
    55                           ; 
    56                           ; This software is developed by Microchip Technology Inc. and its subsidiaries ("Microch
      +                          ip").
    57                           ; 
    58                           ; Redistribution and use in source and binary forms, with or without modification, are
    59                           ; permitted provided that the following conditions are met:
    60                           ; 
    61                           ;     1. Redistributions of source code must retain the above copyright notice, this lis
      +                          t of
    62                           ;        conditions and the following disclaimer.
    63                           ; 
    64                           ;     2. Redistributions in binary form must reproduce the above copyright notice, this 
      +                          list
    65                           ;        of conditions and the following disclaimer in the documentation and/or other
    66                           ;        materials provided with the distribution.
    67                           ; 
    68                           ;     3. Microchip's name may not be used to endorse or promote products derived from th
      +                          is
    69                           ;        software without specific prior written permission.
    70                           ; 
    71                           ; THIS SOFTWARE IS PROVIDED BY MICROCHIP "AS IS" AND ANY EXPRESS OR IMPLIED WARRANTIES,
    72                           ; INCLUDING, BUT NOT LIMITED TO, THE IMPLIED WARRANTIES OF MERCHANTABILITY AND FITNESS F
      +                          OR
    73                           ; PURPOSE ARE DISCLAIMED.  IN NO EVENT SHALL MICROCHIP BE LIABLE FOR ANY DIRECT, INDIREC
      +                          T,
    74                           ; INCIDENTAL, SPECIAL, EXEMPLARY, OR CONSEQUENTIAL DAMAGES (INCLUDING BUT NOT LIMITED TO
    75                           ; PROCUREMENT OF SUBSTITUTE GOODS OR SERVICES; LOSS OF USE, DATA OR PROFITS; OR BUSINESS
    76                           ; INTERRUPTION) HOWSOEVER CAUSED AND ON ANY THEORY OF LIABILITY, WHETHER IN CONTRACT, ST
      +                          RICT
    77                           ; LIABILITY, OR TORT (INCLUDING NEGLIGENCE OR OTHERWISE) ARISING IN ANY WAY OUT OF THE U
      +                          SE OF
    78                           ; THIS SOFTWARE, EVEN IF ADVISED OF THE POSSIBILITY OF SUCH DAMAGE.
    79                           ; 
    80                           ; 
    81                           ; Code-generator required, PIC16F877A Definitions
    82                           ; 
    83                           ; SFR Addresses
    84  0000                     	;# 
    85  0001                     	;# 
    86  0002                     	;# 
    87  0003                     	;# 
    88  0004                     	;# 
    89  0005                     	;# 
    90  0006                     	;# 
    91  0007                     	;# 
    92  0008                     	;# 
    93  0009                     	;# 
    94  000A                     	;# 
    95  000B                     	;# 
    96  000C                     	;# 
    97  000D                     	;# 
    98  000E                     	;# 
    99  000E                     	;# 
   100  000F                     	;# 
   101  0010                     	;# 
   102  0011                     	;# 
   103  0012                     	;# 
   104  0013                     	;# 
   105  0014                     	;# 
   106  0015                     	;# 
   107  0015                     	;# 
   108  0016                     	;# 
   109  0017                     	;# 
   110  0018                     	;# 
   111  0019                     	;# 
   112  001A                     	;# 
   113  001B                     	;# 
   114  001B                     	;# 
   115  001C                     	;# 
   116  001D                     	;# 
   117  001E                     	;# 
   118  001F                     	;# 
   119  0081                     	;# 
   120  0085                     	;# 
   121  0086                     	;# 
   122  0087                     	;# 
   123  0088                     	;# 
   124  0089                     	;# 
   125  008C                     	;# 
   126  008D                     	;# 
   127  008E                     	;# 
   128  0091                     	;# 
   129  0092                     	;# 
   130  0093                     	;# 
   131  0094                     	;# 
   132  0098                     	;# 
   133  0099                     	;# 
   134  009C                     	;# 
   135  009D                     	;# 
   136  009E                     	;# 
   137  009F                     	;# 
   138  010C                     	;# 
   139  010D                     	;# 
   140  010E                     	;# 
   141  010F                     	;# 
   142  018C                     	;# 
   143  018D                     	;# 
   144  0000                     	;# 
   145  0001                     	;# 
   146  0002                     	;# 
   147  0003                     	;# 
   148  0004                     	;# 
   149  0005                     	;# 
   150  0006                     	;# 
   151  0007                     	;# 
   152  0008                     	;# 
   153  0009                     	;# 
   154  000A                     	;# 
   155  000B                     	;# 
   156  000C                     	;# 
   157  000D                     	;# 
   158  000E                     	;# 
   159  000E                     	;# 
   160  000F                     	;# 
   161  0010                     	;# 
   162  0011                     	;# 
   163  0012                     	;# 
   164  0013                     	;# 
   165  0014                     	;# 
   166  0015                     	;# 
   167  0015                     	;# 
   168  0016                     	;# 
   169  0017                     	;# 
   170  0018                     	;# 
   171  0019                     	;# 
   172  001A                     	;# 
   173  001B                     	;# 
   174  001B                     	;# 
   175  001C                     	;# 
   176  001D                     	;# 
   177  001E                     	;# 
   178  001F                     	;# 
   179  0081                     	;# 
   180  0085                     	;# 
   181  0086                     	;# 
   182  0087                     	;# 
   183  0088                     	;# 
   184  0089                     	;# 
   185  008C                     	;# 
   186  008D                     	;# 
   187  008E                     	;# 
   188  0091                     	;# 
   189  0092                     	;# 
   190  0093                     	;# 
   191  0094                     	;# 
   192  0098                     	;# 
   193  0099                     	;# 
   194  009C                     	;# 
   195  009D                     	;# 
   196  009E                     	;# 
   197  009F                     	;# 
   198  010C                     	;# 
   199  010D                     	;# 
   200  010E                     	;# 
   201  010F                     	;# 
   202  018C                     	;# 
   203  018D                     	;# 
   204  0000                     	;# 
   205  0001                     	;# 
   206  0002                     	;# 
   207  0003                     	;# 
   208  0004                     	;# 
   209  0005                     	;# 
   210  0006                     	;# 
   211  0007                     	;# 
   212  0008                     	;# 
   213  0009                     	;# 
   214  000A                     	;# 
   215  000B                     	;# 
   216  000C                     	;# 
   217  000D                     	;# 
   218  000E                     	;# 
   219  000E                     	;# 
   220  000F                     	;# 
   221  0010                     	;# 
   222  0011                     	;# 
   223  0012                     	;# 
   224  0013                     	;# 
   225  0014                     	;# 
   226  0015                     	;# 
   227  0015                     	;# 
   228  0016                     	;# 
   229  0017                     	;# 
   230  0018                     	;# 
   231  0019                     	;# 
   232  001A                     	;# 
   233  001B                     	;# 
   234  001B                     	;# 
   235  001C                     	;# 
   236  001D                     	;# 
   237  001E                     	;# 
   238  001F                     	;# 
   239  0081                     	;# 
   240  0085                     	;# 
   241  0086                     	;# 
   242  0087                     	;# 
   243  0088                     	;# 
   244  0089                     	;# 
   245  008C                     	;# 
   246  008D                     	;# 
   247  008E                     	;# 
   248  0091                     	;# 
   249  0092                     	;# 
   250  0093                     	;# 
   251  0094                     	;# 
   252  0098                     	;# 
   253  0099                     	;# 
   254  009C                     	;# 
   255  009D                     	;# 
   256  009E                     	;# 
   257  009F                     	;# 
   258  010C                     	;# 
   259  010D                     	;# 
   260  010E                     	;# 
   261  010F                     	;# 
   262  018C                     	;# 
   263  018D                     	;# 
   264  0000                     	;# 
   265  0001                     	;# 
   266  0002                     	;# 
   267  0003                     	;# 
   268  0004                     	;# 
   269  0005                     	;# 
   270  0006                     	;# 
   271  0007                     	;# 
   272  0008                     	;# 
   273  0009                     	;# 
   274  000A                     	;# 
   275  000B                     	;# 
   276  000C                     	;# 
   277  000D                     	;# 
   278  000E                     	;# 
   279  000E                     	;# 
   280  000F                     	;# 
   281  0010                     	;# 
   282  0011                     	;# 
   283  0012                     	;# 
   284  0013                     	;# 
   285  0014                     	;# 
   286  0015                     	;# 
   287  0015                     	;# 
   288  0016                     	;# 
   289  0017                     	;# 
   290  0018                     	;# 
   291  0019                     	;# 
   292  001A                     	;# 
   293  001B                     	;# 
   294  001B                     	;# 
   295  001C                     	;# 
   296  001D                     	;# 
   297  001E                     	;# 
   298  001F                     	;# 
   299  0081                     	;# 
   300  0085                     	;# 
   301  0086                     	;# 
   302  0087                     	;# 
   303  0088                     	;# 
   304  0089                     	;# 
   305  008C                     	;# 
   306  008D                     	;# 
   307  008E                     	;# 
   308  0091                     	;# 
   309  0092                     	;# 
   310  0093                     	;# 
   311  0094                     	;# 
   312  0098                     	;# 
   313  0099                     	;# 
   314  009C                     	;# 
   315  009D                     	;# 
   316  009E                     	;# 
   317  009F                     	;# 
   318  010C                     	;# 
   319  010D                     	;# 
   320  010E                     	;# 
   321  010F                     	;# 
   322  018C                     	;# 
   323  018D                     	;# 
   324  0000                     	;# 
   325  0001                     	;# 
   326  0002                     	;# 
   327  0003                     	;# 
   328  0004                     	;# 
   329  0005                     	;# 
   330  0006                     	;# 
   331  0007                     	;# 
   332  0008                     	;# 
   333  0009                     	;# 
   334  000A                     	;# 
   335  000B                     	;# 
   336  000C                     	;# 
   337  000D                     	;# 
   338  000E                     	;# 
   339  000E                     	;# 
   340  000F                     	;# 
   341  0010                     	;# 
   342  0011                     	;# 
   343  0012                     	;# 
   344  0013                     	;# 
   345  0014                     	;# 
   346  0015                     	;# 
   347  0015                     	;# 
   348  0016                     	;# 
   349  0017                     	;# 
   350  0018                     	;# 
   351  0019                     	;# 
   352  001A                     	;# 
   353  001B                     	;# 
   354  001B                     	;# 
   355  001C                     	;# 
   356  001D                     	;# 
   357  001E                     	;# 
   358  001F                     	;# 
   359  0081                     	;# 
   360  0085                     	;# 
   361  0086                     	;# 
   362  0087                     	;# 
   363  0088                     	;# 
   364  0089                     	;# 
   365  008C                     	;# 
   366  008D                     	;# 
   367  008E                     	;# 
   368  0091                     	;# 
   369  0092                     	;# 
   370  0093                     	;# 
   371  0094                     	;# 
   372  0098                     	;# 
   373  0099                     	;# 
   374  009C                     	;# 
   375  009D                     	;# 
   376  009E                     	;# 
   377  009F                     	;# 
   378  010C                     	;# 
   379  010D                     	;# 
   380  010E                     	;# 
   381  010F                     	;# 
   382  018C                     	;# 
   383  018D                     	;# 
   384  0000                     	;# 
   385  0001                     	;# 
   386  0002                     	;# 
   387  0003                     	;# 
   388  0004                     	;# 
   389  0005                     	;# 
   390  0006                     	;# 
   391  0007                     	;# 
   392  0008                     	;# 
   393  0009                     	;# 
   394  000A                     	;# 
   395  000B                     	;# 
   396  000C                     	;# 
   397  000D                     	;# 
   398  000E                     	;# 
   399  000E                     	;# 
   400  000F                     	;# 
   401  0010                     	;# 
   402  0011                     	;# 
   403  0012                     	;# 
   404  0013                     	;# 
   405  0014                     	;# 
   406  0015                     	;# 
   407  0015                     	;# 
   408  0016                     	;# 
   409  0017                     	;# 
   410  0018                     	;# 
   411  0019                     	;# 
   412  001A                     	;# 
   413  001B                     	;# 
   414  001B                     	;# 
   415  001C                     	;# 
   416  001D                     	;# 
   417  001E                     	;# 
   418  001F                     	;# 
   419  0081                     	;# 
   420  0085                     	;# 
   421  0086                     	;# 
   422  0087                     	;# 
   423  0088                     	;# 
   424  0089                     	;# 
   425  008C                     	;# 
   426  008D                     	;# 
   427  008E                     	;# 
   428  0091                     	;# 
   429  0092                     	;# 
   430  0093                     	;# 
   431  0094                     	;# 
   432  0098                     	;# 
   433  0099                     	;# 
   434  009C                     	;# 
   435  009D                     	;# 
   436  009E                     	;# 
   437  009F                     	;# 
   438  010C                     	;# 
   439  010D                     	;# 
   440  010E                     	;# 
   441  010F                     	;# 
   442  018C                     	;# 
   443  018D                     	;# 
   444  0000                     	;# 
   445  0001                     	;# 
   446  0002                     	;# 
   447  0003                     	;# 
   448  0004                     	;# 
   449  0005                     	;# 
   450  0006                     	;# 
   451  0007                     	;# 
   452  0008                     	;# 
   453  0009                     	;# 
   454  000A                     	;# 
   455  000B                     	;# 
   456  000C                     	;# 
   457  000D                     	;# 
   458  000E                     	;# 
   459  000E                     	;# 
   460  000F                     	;# 
   461  0010                     	;# 
   462  0011                     	;# 
   463  0012                     	;# 
   464  0013                     	;# 
   465  0014                     	;# 
   466  0015                     	;# 
   467  0015                     	;# 
   468  0016                     	;# 
   469  0017                     	;# 
   470  0018                     	;# 
   471  0019                     	;# 
   472  001A                     	;# 
   473  001B                     	;# 
   474  001B                     	;# 
   475  001C                     	;# 
   476  001D                     	;# 
   477  001E                     	;# 
   478  001F                     	;# 
   479  0081                     	;# 
   480  0085                     	;# 
   481  0086                     	;# 
   482  0087                     	;# 
   483  0088                     	;# 
   484  0089                     	;# 
   485  008C                     	;# 
   486  008D                     	;# 
   487  008E                     	;# 
   488  0091                     	;# 
   489  0092                     	;# 
   490  0093                     	;# 
   491  0094                     	;# 
   492  0098                     	;# 
   493  0099                     	;# 
   494  009C                     	;# 
   495  009D                     	;# 
   496  009E                     	;# 
   497  009F                     	;# 
   498  010C                     	;# 
   499  010D                     	;# 
   500  010E                     	;# 
   501  010F                     	;# 
   502  018C                     	;# 
   503  018D                     	;# 
   504  0000                     	;# 
   505  0001                     	;# 
   506  0002                     	;# 
   507  0003                     	;# 
   508  0004                     	;# 
   509  0005                     	;# 
   510  0006                     	;# 
   511  0007                     	;# 
   512  0008                     	;# 
   513  0009                     	;# 
   514  000A                     	;# 
   515  000B                     	;# 
   516  000C                     	;# 
   517  000D                     	;# 
   518  000E                     	;# 
   519  000E                     	;# 
   520  000F                     	;# 
   521  0010                     	;# 
   522  0011                     	;# 
   523  0012                     	;# 
   524  0013                     	;# 
   525  0014                     	;# 
   526  0015                     	;# 
   527  0015                     	;# 
   528  0016                     	;# 
   529  0017                     	;# 
   530  0018                     	;# 
   531  0019                     	;# 
   532  001A                     	;# 
   533  001B                     	;# 
   534  001B                     	;# 
   535  001C                     	;# 
   536  001D                     	;# 
   537  001E                     	;# 
   538  001F                     	;# 
   539  0081                     	;# 
   540  0085                     	;# 
   541  0086                     	;# 
   542  0087                     	;# 
   543  0088                     	;# 
   544  0089                     	;# 
   545  008C                     	;# 
   546  008D                     	;# 
   547  008E                     	;# 
   548  0091                     	;# 
   549  0092                     	;# 
   550  0093                     	;# 
   551  0094                     	;# 
   552  0098                     	;# 
   553  0099                     	;# 
   554  009C                     	;# 
   555  009D                     	;# 
   556  009E                     	;# 
   557  009F                     	;# 
   558  010C                     	;# 
   559  010D                     	;# 
   560  010E                     	;# 
   561  010F                     	;# 
   562  018C                     	;# 
   563  018D                     	;# 
   564  0000                     	;# 
   565  0001                     	;# 
   566  0002                     	;# 
   567  0003                     	;# 
   568  0004                     	;# 
   569  0005                     	;# 
   570  0006                     	;# 
   571  0007                     	;# 
   572  0008                     	;# 
   573  0009                     	;# 
   574  000A                     	;# 
   575  000B                     	;# 
   576  000C                     	;# 
   577  000D                     	;# 
   578  000E                     	;# 
   579  000E                     	;# 
   580  000F                     	;# 
   581  0010                     	;# 
   582  0011                     	;# 
   583  0012                     	;# 
   584  0013                     	;# 
   585  0014                     	;# 
   586  0015                     	;# 
   587  0015                     	;# 
   588  0016                     	;# 
   589  0017                     	;# 
   590  0018                     	;# 
   591  0019                     	;# 
   592  001A                     	;# 
   593  001B                     	;# 
   594  001B                     	;# 
   595  001C                     	;# 
   596  001D                     	;# 
   597  001E                     	;# 
   598  001F                     	;# 
   599  0081                     	;# 
   600  0085                     	;# 
   601  0086                     	;# 
   602  0087                     	;# 
   603  0088                     	;# 
   604  0089                     	;# 
   605  008C                     	;# 
   606  008D                     	;# 
   607  008E                     	;# 
   608  0091                     	;# 
   609  0092                     	;# 
   610  0093                     	;# 
   611  0094                     	;# 
   612  0098                     	;# 
   613  0099                     	;# 
   614  009C                     	;# 
   615  009D                     	;# 
   616  009E                     	;# 
   617  009F                     	;# 
   618  010C                     	;# 
   619  010D                     	;# 
   620  010E                     	;# 
   621  010F                     	;# 
   622  018C                     	;# 
   623  018D                     	;# 
   624  0000                     	;# 
   625  0001                     	;# 
   626  0002                     	;# 
   627  0003                     	;# 
   628  0004                     	;# 
   629  0005                     	;# 
   630  0006                     	;# 
   631  0007                     	;# 
   632  0008                     	;# 
   633  0009                     	;# 
   634  000A                     	;# 
   635  000B                     	;# 
   636  000C                     	;# 
   637  000D                     	;# 
   638  000E                     	;# 
   639  000E                     	;# 
   640  000F                     	;# 
   641  0010                     	;# 
   642  0011                     	;# 
   643  0012                     	;# 
   644  0013                     	;# 
   645  0014                     	;# 
   646  0015                     	;# 
   647  0015                     	;# 
   648  0016                     	;# 
   649  0017                     	;# 
   650  0018                     	;# 
   651  0019                     	;# 
   652  001A                     	;# 
   653  001B                     	;# 
   654  001B                     	;# 
   655  001C                     	;# 
   656  001D                     	;# 
   657  001E                     	;# 
   658  001F                     	;# 
   659  0081                     	;# 
   660  0085                     	;# 
   661  0086                     	;# 
   662  0087                     	;# 
   663  0088                     	;# 
   664  0089                     	;# 
   665  008C                     	;# 
   666  008D                     	;# 
   667  008E                     	;# 
   668  0091                     	;# 
   669  0092                     	;# 
   670  0093                     	;# 
   671  0094                     	;# 
   672  0098                     	;# 
   673  0099                     	;# 
   674  009C                     	;# 
   675  009D                     	;# 
   676  009E                     	;# 
   677  009F                     	;# 
   678  010C                     	;# 
   679  010D                     	;# 
   680  010E                     	;# 
   681  010F                     	;# 
   682  018C                     	;# 
   683  018D                     	;# 
   684  0000                     	;# 
   685  0001                     	;# 
   686  0002                     	;# 
   687  0003                     	;# 
   688  0004                     	;# 
   689  0005                     	;# 
   690  0006                     	;# 
   691  0007                     	;# 
   692  0008                     	;# 
   693  0009                     	;# 
   694  000A                     	;# 
   695  000B                     	;# 
   696  000C                     	;# 
   697  000D                     	;# 
   698  000E                     	;# 
   699  000E                     	;# 
   700  000F                     	;# 
   701  0010                     	;# 
   702  0011                     	;# 
   703  0012                     	;# 
   704  0013                     	;# 
   705  0014                     	;# 
   706  0015                     	;# 
   707  0015                     	;# 
   708  0016                     	;# 
   709  0017                     	;# 
   710  0018                     	;# 
   711  0019                     	;# 
   712  001A                     	;# 
   713  001B                     	;# 
   714  001B                     	;# 
   715  001C                     	;# 
   716  001D                     	;# 
   717  001E                     	;# 
   718  001F                     	;# 
   719  0081                     	;# 
   720  0085                     	;# 
   721  0086                     	;# 
   722  0087                     	;# 
   723  0088                     	;# 
   724  0089                     	;# 
   725  008C                     	;# 
   726  008D                     	;# 
   727  008E                     	;# 
   728  0091                     	;# 
   729  0092                     	;# 
   730  0093                     	;# 
   731  0094                     	;# 
   732  0098                     	;# 
   733  0099                     	;# 
   734  009C                     	;# 
   735  009D                     	;# 
   736  009E                     	;# 
   737  009F                     	;# 
   738  010C                     	;# 
   739  010D                     	;# 
   740  010E                     	;# 
   741  010F                     	;# 
   742  018C                     	;# 
   743  018D                     	;# 
   744  0000                     	;# 
   745  0001                     	;# 
   746  0002                     	;# 
   747  0003                     	;# 
   748  0004                     	;# 
   749  0005                     	;# 
   750  0006                     	;# 
   751  0007                     	;# 
   752  0008                     	;# 
   753  0009                     	;# 
   754  000A                     	;# 
   755  000B                     	;# 
   756  000C                     	;# 
   757  000D                     	;# 
   758  000E                     	;# 
   759  000E                     	;# 
   760  000F                     	;# 
   761  0010                     	;# 
   762  0011                     	;# 
   763  0012                     	;# 
   764  0013                     	;# 
   765  0014                     	;# 
   766  0015                     	;# 
   767  0015                     	;# 
   768  0016                     	;# 
   769  0017                     	;# 
   770  0018                     	;# 
   771  0019                     	;# 
   772  001A                     	;# 
   773  001B                     	;# 
   774  001B                     	;# 
   775  001C                     	;# 
   776  001D                     	;# 
   777  001E                     	;# 
   778  001F                     	;# 
   779  0081                     	;# 
   780  0085                     	;# 
   781  0086                     	;# 
   782  0087                     	;# 
   783  0088                     	;# 
   784  0089                     	;# 
   785  008C                     	;# 
   786  008D                     	;# 
   787  008E                     	;# 
   788  0091                     	;# 
   789  0092                     	;# 
   790  0093                     	;# 
   791  0094                     	;# 
   792  0098                     	;# 
   793  0099                     	;# 
   794  009C                     	;# 
   795  009D                     	;# 
   796  009E                     	;# 
   797  009F                     	;# 
   798  010C                     	;# 
   799  010D                     	;# 
   800  010E                     	;# 
   801  010F                     	;# 
   802  018C                     	;# 
   803  018D                     	;# 
   804  0000                     	;# 
   805  0001                     	;# 
   806  0002                     	;# 
   807  0003                     	;# 
   808  0004                     	;# 
   809  0005                     	;# 
   810  0006                     	;# 
   811  0007                     	;# 
   812  0008                     	;# 
   813  0009                     	;# 
   814  000A                     	;# 
   815  000B                     	;# 
   816  000C                     	;# 
   817  000D                     	;# 
   818  000E                     	;# 
   819  000E                     	;# 
   820  000F                     	;# 
   821  0010                     	;# 
   822  0011                     	;# 
   823  0012                     	;# 
   824  0013                     	;# 
   825  0014                     	;# 
   826  0015                     	;# 
   827  0015                     	;# 
   828  0016                     	;# 
   829  0017                     	;# 
   830  0018                     	;# 
   831  0019                     	;# 
   832  001A                     	;# 
   833  001B                     	;# 
   834  001B                     	;# 
   835  001C                     	;# 
   836  001D                     	;# 
   837  001E                     	;# 
   838  001F                     	;# 
   839  0081                     	;# 
   840  0085                     	;# 
   841  0086                     	;# 
   842  0087                     	;# 
   843  0088                     	;# 
   844  0089                     	;# 
   845  008C                     	;# 
   846  008D                     	;# 
   847  008E                     	;# 
   848  0091                     	;# 
   849  0092                     	;# 
   850  0093                     	;# 
   851  0094                     	;# 
   852  0098                     	;# 
   853  0099                     	;# 
   854  009C                     	;# 
   855  009D                     	;# 
   856  009E                     	;# 
   857  009F                     	;# 
   858  010C                     	;# 
   859  010D                     	;# 
   860  010E                     	;# 
   861  010F                     	;# 
   862  018C                     	;# 
   863  018D                     	;# 
   864  0000                     	;# 
   865  0001                     	;# 
   866  0002                     	;# 
   867  0003                     	;# 
   868  0004                     	;# 
   869  0005                     	;# 
   870  0006                     	;# 
   871  0007                     	;# 
   872  0008                     	;# 
   873  0009                     	;# 
   874  000A                     	;# 
   875  000B                     	;# 
   876  000C                     	;# 
   877  000D                     	;# 
   878  000E                     	;# 
   879  000E                     	;# 
   880  000F                     	;# 
   881  0010                     	;# 
   882  0011                     	;# 
   883  0012                     	;# 
   884  0013                     	;# 
   885  0014                     	;# 
   886  0015                     	;# 
   887  0015                     	;# 
   888  0016                     	;# 
   889  0017                     	;# 
   890  0018                     	;# 
   891  0019                     	;# 
   892  001A                     	;# 
   893  001B                     	;# 
   894  001B                     	;# 
   895  001C                     	;# 
   896  001D                     	;# 
   897  001E                     	;# 
   898  001F                     	;# 
   899  0081                     	;# 
   900  0085                     	;# 
   901  0086                     	;# 
   902  0087                     	;# 
   903  0088                     	;# 
   904  0089                     	;# 
   905  008C                     	;# 
   906  008D                     	;# 
   907  008E                     	;# 
   908  0091                     	;# 
   909  0092                     	;# 
   910  0093                     	;# 
   911  0094                     	;# 
   912  0098                     	;# 
   913  0099                     	;# 
   914  009C                     	;# 
   915  009D                     	;# 
   916  009E                     	;# 
   917  009F                     	;# 
   918  010C                     	;# 
   919  010D                     	;# 
   920  010E                     	;# 
   921  010F                     	;# 
   922  018C                     	;# 
   923  018D                     	;# 
   924                           
   925                           	psect	strings
   926  0585                     __pstrings:
   927  0585                     stringtab:
   928  0585                     __stringtab:
   929  0585                     stringcode:	
   930                           ;	String table - string pointers are 1 byte each
   931                           
   932  0585                     stringdir:
   933  0585  3005               	movlw	high stringdir
   934  0586  008A               	movwf	10
   935  0587  0804               	movf	4,w
   936  0588  0A84               	incf	4,f
   937  0589  0782               	addwf	2,f
   938  058A                     __stringbase:
   939  058A  3400               	retlw	0
   940  058B                     __end_of__stringtab:
   941  058B                     _Tasks:
   942  058B  3405               	retlw	5
   943  058C  3400               	retlw	0
   944  058D  3407               	retlw	low (fp__Scheduler_Task1-i1fpbase)
   945  058E  3464               	retlw	100
   946  058F  3400               	retlw	0
   947  0590  340A               	retlw	low (fp__Scheduler_Task2-i1fpbase)
   948  0591  34F4               	retlw	244
   949  0592  3401               	retlw	1
   950  0593  3404               	retlw	low (fp__Scheduler_Task3-i1fpbase)
   951  0594                     __end_of_Tasks:
   952  0594                     _Interrupt_CbStruct:
   953  0594  340D               	retlw	low (fp__Timer0_CB-i1fpbase)
   954  0595  3401               	retlw	low (fp__EXTI_SettingButton_CB-i1fpbase)
   955  0596                     __end_of_Interrupt_CbStruct:
   956  0008                     _PORTD	set	8
   957  0005                     _PORTA	set	5
   958  0006                     _PORTB	set	6
   959  000B                     _INTCONbits	set	11
   960  0001                     _TMR0	set	1
   961  005A                     _TMR0IF	set	90
   962  0088                     _TRISD	set	136
   963  0085                     _TRISA	set	133
   964  0086                     _TRISB	set	134
   965  0081                     _OPTION_REGbits	set	129
   966                           
   967                           	psect	cinit
   968  0015                     start_initialization:	
   969                           ; #config settings
   970                           
   971  0015                     __initialization:
   972                           
   973                           ; Clear objects allocated to COMMON
   974  0015  01FB               	clrf	__pbssCOMMON& (0+127)
   975  0016  01FC               	clrf	(__pbssCOMMON+1)& (0+127)
   976  0017  01FD               	clrf	(__pbssCOMMON+2)& (0+127)
   977                           
   978                           ; Clear objects allocated to BANK0
   979  0018  1383               	bcf	3,7	;select IRP bank0
   980  0019  3020               	movlw	low __pbssBANK0
   981  001A  0084               	movwf	4
   982  001B  3037               	movlw	low (__pbssBANK0+23)
   983  001C  120A  118A  25D7  120A  118A  	fcall	clear_ram0
   984  0021                     end_of_initialization:	
   985                           ;End of C runtime variable initialization code
   986                           
   987  0021                     __end_of__initialization:
   988  0021  0183               	clrf	3
   989  0022  120A  118A  2C17   	ljmp	_main	;jump to C main() function
   990                           
   991                           	psect	bssCOMMON
   992  007B                     __pbssCOMMON:
   993  007B                     Buttons_Update@Debounce_Counter:
   994  007B                     	ds	1
   995  007C                     _ButtonsFlag:
   996  007C                     	ds	1
   997  007D                     _MODE:
   998  007D                     	ds	1
   999                           
  1000                           	psect	bssBANK0
  1001  0020                     __pbssBANK0:
  1002  0020                     _Tick:
  1003  0020                     	ds	4
  1004  0024                     _Clock:
  1005  0024                     	ds	3
  1006  0027                     _value:
  1007  0027                     	ds	1
  1008  0028                     _Digit4:
  1009  0028                     	ds	1
  1010  0029                     _Digit3:
  1011  0029                     	ds	1
  1012  002A                     _Digit2:
  1013  002A                     	ds	1
  1014  002B                     _Digit1:
  1015  002B                     	ds	1
  1016  002C                     _DigitSelector:
  1017  002C                     	ds	1
  1018  002D                     _Display:
  1019  002D                     	ds	1
  1020  002E                     _Debounce_DownButton:
  1021  002E                     	ds	3
  1022  0031                     _Debounce_UpButton:
  1023  0031                     	ds	3
  1024  0034                     _Task_Flag:
  1025  0034                     	ds	3
  1026                           
  1027                           	psect	clrtext
  1028  05D7                     clear_ram0:	
  1029                           ;	Called with FSR containing the base address, and
  1030                           ;	W with the last address+1
  1031                           
  1032  05D7  0064               	clrwdt	;clear the watchdog before getting into this loop
  1033  05D8                     clrloop0:
  1034  05D8  0180               	clrf	0	;clear RAM location pointed to by FSR
  1035  05D9  0A84               	incf	4,f	;increment pointer
  1036  05DA  0604               	xorwf	4,w	;XOR with final address
  1037  05DB  1903               	btfsc	3,2	;have we reached the end yet?
  1038  05DC  3400               	retlw	0	;all done for this memory range, return
  1039  05DD  0604               	xorwf	4,w	;XOR again to restore value
  1040  05DE  2DD8               	goto	clrloop0	;do the next byte
  1041                           
  1042                           	psect	cstackCOMMON
  1043  0070                     __pcstackCOMMON:
  1044  0070                     ?_GPIO_Init:
  1045  0070                     ?_Display_Init:	
  1046                           ; 1 bytes @ 0x0
  1047                           
  1048  0070                     ?_Clock_Init:	
  1049                           ; 1 bytes @ 0x0
  1050                           
  1051  0070                     ?_ModeManager_Init:	
  1052                           ; 1 bytes @ 0x0
  1053                           
  1054  0070                     ?_Buttons_Init:	
  1055                           ; 1 bytes @ 0x0
  1056                           
  1057  0070                     ?_Timer_Init:	
  1058                           ; 1 bytes @ 0x0
  1059                           
  1060  0070                     ?_Scheduler_Init:	
  1061                           ; 1 bytes @ 0x0
  1062                           
  1063  0070                     ?_Timer_Start:	
  1064                           ; 1 bytes @ 0x0
  1065                           
  1066  0070                     ?_Display_Normal:	
  1067                           ; 1 bytes @ 0x0
  1068                           
  1069  0070                     ?_Display_Hour_Setting:	
  1070                           ; 1 bytes @ 0x0
  1071                           
  1072  0070                     ??_Display_Hour_Setting:	
  1073                           ; 1 bytes @ 0x0
  1074                           
  1075  0070                     ?_Display_Minutes_Setting:	
  1076                           ; 1 bytes @ 0x0
  1077                           
  1078  0070                     ??_Display_Minutes_Setting:	
  1079                           ; 1 bytes @ 0x0
  1080                           
  1081  0070                     ?_SSD_Display:	
  1082                           ; 1 bytes @ 0x0
  1083                           
  1084  0070                     ??_SSD_Display:	
  1085                           ; 1 bytes @ 0x0
  1086                           
  1087  0070                     ?_SSD_DigitSelector:	
  1088                           ; 1 bytes @ 0x0
  1089                           
  1090  0070                     ??_SSD_DigitSelector:	
  1091                           ; 1 bytes @ 0x0
  1092                           
  1093  0070                     ?_Scheduler_Task1:	
  1094                           ; 1 bytes @ 0x0
  1095                           
  1096  0070                     ?_Scheduler_Task2:	
  1097                           ; 1 bytes @ 0x0
  1098                           
  1099  0070                     ?_Scheduler_Task3:	
  1100                           ; 1 bytes @ 0x0
  1101                           
  1102  0070                     ?_Clock_Update:	
  1103                           ; 1 bytes @ 0x0
  1104                           
  1105  0070                     ??_Clock_Update:	
  1106                           ; 1 bytes @ 0x0
  1107                           
  1108  0070                     ?_Clock_Normal:	
  1109                           ; 1 bytes @ 0x0
  1110                           
  1111  0070                     ??_Clock_Normal:	
  1112                           ; 1 bytes @ 0x0
  1113                           
  1114  0070                     ?_Clock_Hour_Setting:	
  1115                           ; 1 bytes @ 0x0
  1116                           
  1117  0070                     ??_Clock_Hour_Setting:	
  1118                           ; 1 bytes @ 0x0
  1119                           
  1120  0070                     ?_Clock_Minutes_Setting:	
  1121                           ; 1 bytes @ 0x0
  1122                           
  1123  0070                     ??_Clock_Minutes_Setting:	
  1124                           ; 1 bytes @ 0x0
  1125                           
  1126  0070                     ?_main:	
  1127                           ; 1 bytes @ 0x0
  1128                           
  1129  0070                     ?_Scheduler_Update:	
  1130                           ; 1 bytes @ 0x0
  1131                           
  1132  0070                     ?_Timer0_CB:	
  1133                           ; 1 bytes @ 0x0
  1134                           
  1135  0070                     ?_Buttons_Update:	
  1136                           ; 1 bytes @ 0x0
  1137                           
  1138  0070                     ?_EXTI_SettingButton_CB:	
  1139                           ; 1 bytes @ 0x0
  1140                           
  1141  0070                     ??_EXTI_SettingButton_CB:	
  1142                           ; 1 bytes @ 0x0
  1143                           
  1144  0070                     ?_Display_Update:	
  1145                           ; 1 bytes @ 0x0
  1146                           
  1147  0070                     ?_ModeManager_Update:	
  1148                           ; 1 bytes @ 0x0
  1149                           
  1150  0070                     ??_ModeManager_Update:	
  1151                           ; 1 bytes @ 0x0
  1152                           
  1153  0070                     ?_ISR:	
  1154                           ; 1 bytes @ 0x0
  1155                           
  1156  0070                     ?___bmul:	
  1157                           ; 1 bytes @ 0x0
  1158                           
  1159  0070                     ?i1___awmod:	
  1160                           ; 1 bytes @ 0x0
  1161                           
  1162  0070                     ___bmul@multiplicand:	
  1163                           ; 2 bytes @ 0x0
  1164                           
  1165  0070                     i1___awmod@divisor:	
  1166                           ; 1 bytes @ 0x0
  1167                           
  1168                           
  1169                           ; 2 bytes @ 0x0
  1170  0070                     	ds	1
  1171  0071                     ??___bmul:
  1172  0071                     ___bmul@product:	
  1173                           ; 1 bytes @ 0x1
  1174                           
  1175                           
  1176                           ; 1 bytes @ 0x1
  1177  0071                     	ds	1
  1178  0072                     ??_Scheduler_Task3:
  1179  0072                     SSD_Display@Number:	
  1180                           ; 1 bytes @ 0x2
  1181                           
  1182  0072                     ___bmul@multiplier:	
  1183                           ; 1 bytes @ 0x2
  1184                           
  1185  0072                     i1___awmod@dividend:	
  1186                           ; 1 bytes @ 0x2
  1187                           
  1188                           
  1189                           ; 2 bytes @ 0x2
  1190  0072                     	ds	1
  1191  0073                     ??_Display_Normal:
  1192  0073                     ??_Display_Update:	
  1193                           ; 1 bytes @ 0x3
  1194                           
  1195  0073                     ?___llmod:	
  1196                           ; 1 bytes @ 0x3
  1197                           
  1198  0073                     ___llmod@divisor:	
  1199                           ; 4 bytes @ 0x3
  1200                           
  1201                           
  1202                           ; 4 bytes @ 0x3
  1203  0073                     	ds	1
  1204  0074                     ??i1___awmod:
  1205  0074                     i1___awmod@counter:	
  1206                           ; 1 bytes @ 0x4
  1207                           
  1208                           
  1209                           ; 1 bytes @ 0x4
  1210  0074                     	ds	1
  1211  0075                     ??_Scheduler_Task1:
  1212  0075                     i1___awmod@sign:	
  1213                           ; 1 bytes @ 0x5
  1214                           
  1215                           
  1216                           ; 1 bytes @ 0x5
  1217  0075                     	ds	1
  1218  0076                     ??_Scheduler_Task2:
  1219  0076                     ??_Buttons_Update:	
  1220                           ; 1 bytes @ 0x6
  1221                           
  1222                           
  1223                           ; 1 bytes @ 0x6
  1224  0076                     	ds	1
  1225  0077                     ___llmod@dividend:
  1226                           
  1227                           ; 4 bytes @ 0x7
  1228  0077                     	ds	4
  1229  007B                     ??_Timer0_CB:
  1230                           
  1231                           	psect	cstackBANK0
  1232  0037                     __pcstackBANK0:	
  1233                           ; 1 bytes @ 0xB
  1234                           
  1235  0037                     ??___llmod:
  1236                           
  1237                           ; 1 bytes @ 0x0
  1238  0037                     	ds	1
  1239  0038                     ___llmod@counter:
  1240                           
  1241                           ; 1 bytes @ 0x1
  1242  0038                     	ds	1
  1243  0039                     ??_Scheduler_Update:
  1244                           
  1245                           ; 1 bytes @ 0x2
  1246  0039                     	ds	6
  1247  003F                     Scheduler_Update@i:
  1248                           
  1249                           ; 1 bytes @ 0x8
  1250  003F                     	ds	1
  1251  0040                     ??_ISR:
  1252                           
  1253                           ; 1 bytes @ 0x9
  1254  0040                     	ds	4
  1255  0044                     ??_GPIO_Init:
  1256  0044                     ??_Clock_Init:	
  1257                           ; 1 bytes @ 0xD
  1258                           
  1259  0044                     ??_ModeManager_Init:	
  1260                           ; 1 bytes @ 0xD
  1261                           
  1262  0044                     ??_Timer_Init:	
  1263                           ; 1 bytes @ 0xD
  1264                           
  1265  0044                     ??_Timer_Start:	
  1266                           ; 1 bytes @ 0xD
  1267                           
  1268  0044                     ?_memset:	
  1269                           ; 1 bytes @ 0xD
  1270                           
  1271  0044                     ?___awdiv:	
  1272                           ; 1 bytes @ 0xD
  1273                           
  1274  0044                     ?___awmod:	
  1275                           ; 2 bytes @ 0xD
  1276                           
  1277  0044                     ___awdiv@divisor:	
  1278                           ; 2 bytes @ 0xD
  1279                           
  1280  0044                     ___awmod@divisor:	
  1281                           ; 2 bytes @ 0xD
  1282                           
  1283  0044                     memset@c:	
  1284                           ; 2 bytes @ 0xD
  1285                           
  1286                           
  1287                           ; 2 bytes @ 0xD
  1288  0044                     	ds	2
  1289  0046                     ___awdiv@dividend:
  1290  0046                     ___awmod@dividend:	
  1291                           ; 2 bytes @ 0xF
  1292                           
  1293  0046                     memset@n:	
  1294                           ; 2 bytes @ 0xF
  1295                           
  1296                           
  1297                           ; 2 bytes @ 0xF
  1298  0046                     	ds	2
  1299  0048                     ??_memset:
  1300  0048                     ??___awdiv:	
  1301                           ; 1 bytes @ 0x11
  1302                           
  1303  0048                     ??___awmod:	
  1304                           ; 1 bytes @ 0x11
  1305                           
  1306  0048                     ___awdiv@counter:	
  1307                           ; 1 bytes @ 0x11
  1308                           
  1309  0048                     ___awmod@counter:	
  1310                           ; 1 bytes @ 0x11
  1311                           
  1312  0048                     memset@p:	
  1313                           ; 1 bytes @ 0x11
  1314                           
  1315                           
  1316                           ; 1 bytes @ 0x11
  1317  0048                     	ds	1
  1318  0049                     ___awdiv@sign:
  1319  0049                     ___awmod@sign:	
  1320                           ; 1 bytes @ 0x12
  1321                           
  1322  0049                     memset@p1:	
  1323                           ; 1 bytes @ 0x12
  1324                           
  1325                           
  1326                           ; 1 bytes @ 0x12
  1327  0049                     	ds	1
  1328  004A                     ??_Buttons_Init:
  1329  004A                     ??_Scheduler_Init:	
  1330                           ; 1 bytes @ 0x13
  1331                           
  1332  004A                     ___awdiv@quotient:	
  1333                           ; 1 bytes @ 0x13
  1334                           
  1335                           
  1336                           ; 2 bytes @ 0x13
  1337  004A                     	ds	2
  1338  004C                     ??_Display_Init:
  1339                           
  1340                           ; 1 bytes @ 0x15
  1341  004C                     	ds	2
  1342  004E                     ??_main:
  1343                           
  1344                           	psect	maintext
  1345  0417                     __pmaintext:	
  1346                           ; 1 bytes @ 0x17
  1347 ;;
  1348 ;;Main: autosize = 0, tempsize = 0, incstack = 0, save=0
  1349 ;;
  1350 ;; *************** function _main *****************
  1351 ;; Defined at:
  1352 ;;		line 18 in file "main.c"
  1353 ;; Parameters:    Size  Location     Type
  1354 ;;		None
  1355 ;; Auto vars:     Size  Location     Type
  1356 ;;		None
  1357 ;; Return value:  Size  Location     Type
  1358 ;;                  1    wreg      void 
  1359 ;; Registers used:
  1360 ;;		wreg, fsr0l, fsr0h, status,2, status,0, btemp+1, pclath, cstack
  1361 ;; Tracked objects:
  1362 ;;		On entry : B00/0
  1363 ;;		On exit  : 0/0
  1364 ;;		Unchanged: 0/0
  1365 ;; Data sizes:     COMMON   BANK0   BANK1   BANK3   BANK2
  1366 ;;      Params:         0       0       0       0       0
  1367 ;;      Locals:         0       0       0       0       0
  1368 ;;      Temps:          0       0       0       0       0
  1369 ;;      Totals:         0       0       0       0       0
  1370 ;;Total ram usage:        0 bytes
  1371 ;; Hardware stack levels required when called:    9
  1372 ;; This function calls:
  1373 ;;		_Buttons_Init
  1374 ;;		_Clock_Init
  1375 ;;		_Display_Init
  1376 ;;		_GPIO_Init
  1377 ;;		_ModeManager_Init
  1378 ;;		_Scheduler_Init
  1379 ;;		_Timer_Init
  1380 ;;		_Timer_Start
  1381 ;; This function is called by:
  1382 ;;		Startup code after reset
  1383 ;; This function uses a non-reentrant model
  1384 ;;
  1385                           
  1386                           
  1387                           ;psect for function _main
  1388  0417                     _main:
  1389  0417                     l2344:	
  1390                           ;incstack = 0
  1391 ;; hardware stack exceeded
  1392                           ; Regs used in _main: [wreg-fsr0h+status,2+status,0+btemp+1+pclath+cstack]
  1393                           
  1394                           
  1395                           ;main.c: 19:     GPIO_Init();
  1396  0417  120A  118A  251E  120A  118A  	fcall	_GPIO_Init
  1397                           
  1398                           ;main.c: 20:     Display_Init();
  1399  041C  120A  118A  203B  120A  118A  	fcall	_Display_Init
  1400  0421                     l2346:
  1401                           
  1402                           ;main.c: 21:     Clock_Init();
  1403  0421  120A  118A  25DF  120A  118A  	fcall	_Clock_Init
  1404  0426                     l2348:
  1405                           
  1406                           ;main.c: 22:     ModeManager_Init();
  1407  0426  120A  118A  25E7  120A  118A  	fcall	_ModeManager_Init
  1408  042B                     l2350:
  1409                           
  1410                           ;main.c: 23:     Buttons_Init();
  1411  042B  120A  118A  24D9  120A  118A  	fcall	_Buttons_Init
  1412  0430                     l2352:
  1413                           
  1414                           ;main.c: 24:     Timer_Init();
  1415  0430  120A  118A  25A6  120A  118A  	fcall	_Timer_Init
  1416  0435                     l2354:
  1417                           
  1418                           ;main.c: 25:     Scheduler_Init();
  1419  0435  120A  118A  2596  120A  118A  	fcall	_Scheduler_Init
  1420  043A                     l2356:
  1421                           
  1422                           ;main.c: 26:     Timer_Start();
  1423  043A  120A  118A  25E5  120A  118A  	fcall	_Timer_Start
  1424  043F                     l29:	
  1425                           ;main.c: 27:     while(1);
  1426                           
  1427  043F                     l30:
  1428  043F  2C3F               	goto	l29
  1429  0440  120A  118A  2812   	ljmp	start
  1430  0443                     __end_of_main:
  1431                           
  1432                           	psect	text1
  1433  05E5                     __ptext1:	
  1434 ;; *************** function _Timer_Start *****************
  1435 ;; Defined at:
  1436 ;;		line 33 in file "Timer/Timer.c"
  1437 ;; Parameters:    Size  Location     Type
  1438 ;;		None
  1439 ;; Auto vars:     Size  Location     Type
  1440 ;;		None
  1441 ;; Return value:  Size  Location     Type
  1442 ;;                  1    wreg      void 
  1443 ;; Registers used:
  1444 ;;		None
  1445 ;; Tracked objects:
  1446 ;;		On entry : 0/0
  1447 ;;		On exit  : 0/0
  1448 ;;		Unchanged: 0/0
  1449 ;; Data sizes:     COMMON   BANK0   BANK1   BANK3   BANK2
  1450 ;;      Params:         0       0       0       0       0
  1451 ;;      Locals:         0       0       0       0       0
  1452 ;;      Temps:          0       0       0       0       0
  1453 ;;      Totals:         0       0       0       0       0
  1454 ;;Total ram usage:        0 bytes
  1455 ;; Hardware stack levels used:    1
  1456 ;; Hardware stack levels required when called:    7
  1457 ;; This function calls:
  1458 ;;		Nothing
  1459 ;; This function is called by:
  1460 ;;		_main
  1461 ;; This function uses a non-reentrant model
  1462 ;;
  1463                           
  1464                           
  1465                           ;psect for function _Timer_Start
  1466  05E5                     _Timer_Start:
  1467  05E5                     l1904:	
  1468                           ;incstack = 0
  1469                           ; Regs used in _Timer_Start: []
  1470                           
  1471                           
  1472                           ;Timer/Timer.c: 35:     INTCONbits.TMR0IE=1;
  1473  05E5  168B               	bsf	11,5	;volatile
  1474  05E6                     l67:
  1475  05E6  0008               	return
  1476  05E7                     __end_of_Timer_Start:
  1477                           
  1478                           	psect	text2
  1479  05A6                     __ptext2:	
  1480 ;; *************** function _Timer_Init *****************
  1481 ;; Defined at:
  1482 ;;		line 14 in file "Timer/Timer.c"
  1483 ;; Parameters:    Size  Location     Type
  1484 ;;		None
  1485 ;; Auto vars:     Size  Location     Type
  1486 ;;		None
  1487 ;; Return value:  Size  Location     Type
  1488 ;;                  1    wreg      void 
  1489 ;; Registers used:
  1490 ;;		wreg
  1491 ;; Tracked objects:
  1492 ;;		On entry : 0/0
  1493 ;;		On exit  : 0/0
  1494 ;;		Unchanged: 0/0
  1495 ;; Data sizes:     COMMON   BANK0   BANK1   BANK3   BANK2
  1496 ;;      Params:         0       0       0       0       0
  1497 ;;      Locals:         0       0       0       0       0
  1498 ;;      Temps:          0       0       0       0       0
  1499 ;;      Totals:         0       0       0       0       0
  1500 ;;Total ram usage:        0 bytes
  1501 ;; Hardware stack levels used:    1
  1502 ;; Hardware stack levels required when called:    7
  1503 ;; This function calls:
  1504 ;;		Nothing
  1505 ;; This function is called by:
  1506 ;;		_main
  1507 ;; This function uses a non-reentrant model
  1508 ;;
  1509                           
  1510                           
  1511                           ;psect for function _Timer_Init
  1512  05A6                     _Timer_Init:
  1513  05A6                     l1894:	
  1514                           ;incstack = 0
  1515                           ; Regs used in _Timer_Init: [wreg]
  1516                           
  1517                           
  1518                           ;Timer/Timer.c: 16:     OPTION_REGbits.T0CS=0;
  1519  05A6  1683               	bsf	3,5	;RP0=1, select bank1
  1520  05A7  1303               	bcf	3,6	;RP1=0, select bank1
  1521  05A8  1281               	bcf	1,5	;volatile
  1522                           
  1523                           ;Timer/Timer.c: 17:     OPTION_REGbits.PSA=0;
  1524  05A9  1181               	bcf	1,3	;volatile
  1525                           
  1526                           ;Timer/Timer.c: 19:     OPTION_REGbits.PS0=0;
  1527  05AA  1001               	bcf	1,0	;volatile
  1528                           
  1529                           ;Timer/Timer.c: 20:     OPTION_REGbits.PS1=0;
  1530  05AB  1081               	bcf	1,1	;volatile
  1531                           
  1532                           ;Timer/Timer.c: 21:     OPTION_REGbits.PS2=1;
  1533  05AC  1501               	bsf	1,2	;volatile
  1534  05AD                     l1896:
  1535                           
  1536                           ;Timer/Timer.c: 23:     TMR0=100;
  1537  05AD  3064               	movlw	100
  1538  05AE  1283               	bcf	3,5	;RP0=0, select bank0
  1539  05AF  1303               	bcf	3,6	;RP1=0, select bank0
  1540  05B0  0081               	movwf	1	;volatile
  1541  05B1                     l1898:
  1542                           
  1543                           ;Timer/Timer.c: 24:     INTCONbits.GIE=1;
  1544  05B1  178B               	bsf	11,7	;volatile
  1545  05B2                     l1900:
  1546                           
  1547                           ;Timer/Timer.c: 25:     INTCONbits.PEIE=1;
  1548  05B2  170B               	bsf	11,6	;volatile
  1549  05B3                     l64:
  1550  05B3  0008               	return
  1551  05B4                     __end_of_Timer_Init:
  1552                           
  1553                           	psect	text3
  1554  0596                     __ptext3:	
  1555 ;; *************** function _Scheduler_Init *****************
  1556 ;; Defined at:
  1557 ;;		line 11 in file "Scheduler/Scheduler.c"
  1558 ;; Parameters:    Size  Location     Type
  1559 ;;		None
  1560 ;; Auto vars:     Size  Location     Type
  1561 ;;		None
  1562 ;; Return value:  Size  Location     Type
  1563 ;;                  1    wreg      void 
  1564 ;; Registers used:
  1565 ;;		wreg, fsr0l, fsr0h, status,2, status,0, btemp+1, pclath, cstack
  1566 ;; Tracked objects:
  1567 ;;		On entry : 0/0
  1568 ;;		On exit  : 0/0
  1569 ;;		Unchanged: 0/0
  1570 ;; Data sizes:     COMMON   BANK0   BANK1   BANK3   BANK2
  1571 ;;      Params:         0       0       0       0       0
  1572 ;;      Locals:         0       0       0       0       0
  1573 ;;      Temps:          0       0       0       0       0
  1574 ;;      Totals:         0       0       0       0       0
  1575 ;;Total ram usage:        0 bytes
  1576 ;; Hardware stack levels used:    1
  1577 ;; Hardware stack levels required when called:    8
  1578 ;; This function calls:
  1579 ;;		_memset
  1580 ;; This function is called by:
  1581 ;;		_main
  1582 ;; This function uses a non-reentrant model
  1583 ;;
  1584                           
  1585                           
  1586                           ;psect for function _Scheduler_Init
  1587  0596                     _Scheduler_Init:
  1588  0596                     l2338:	
  1589                           ;incstack = 0
  1590 ;; hardware stack exceeded
  1591                           ; Regs used in _Scheduler_Init: [wreg-fsr0h+status,2+status,0+btemp+1+pclath+cstack]
  1592                           
  1593                           
  1594                           ;Scheduler/Scheduler.c: 13:     memset(Task_Flag,0,sizeof(Task_Flag));
  1595  0596  3000               	movlw	0
  1596  0597  1283               	bcf	3,5	;RP0=0, select bank0
  1597  0598  1303               	bcf	3,6	;RP1=0, select bank0
  1598  0599  00C4               	movwf	memset@c
  1599  059A  00C5               	movwf	memset@c+1
  1600  059B  3003               	movlw	3
  1601  059C  00C6               	movwf	memset@n
  1602  059D  3000               	movlw	0
  1603  059E  00C7               	movwf	memset@n+1
  1604  059F  3034               	movlw	(low (_Task_Flag| 0))& (0+255)
  1605  05A0  120A  118A  24FC  120A  118A  	fcall	_memset
  1606  05A5                     l43:
  1607  05A5  0008               	return
  1608  05A6                     __end_of_Scheduler_Init:
  1609                           
  1610                           	psect	text4
  1611  05E7                     __ptext4:	
  1612 ;; *************** function _ModeManager_Init *****************
  1613 ;; Defined at:
  1614 ;;		line 11 in file "ModeManger/ModeManager.c"
  1615 ;; Parameters:    Size  Location     Type
  1616 ;;		None
  1617 ;; Auto vars:     Size  Location     Type
  1618 ;;		None
  1619 ;; Return value:  Size  Location     Type
  1620 ;;                  1    wreg      void 
  1621 ;; Registers used:
  1622 ;;		status,2
  1623 ;; Tracked objects:
  1624 ;;		On entry : 0/0
  1625 ;;		On exit  : 0/0
  1626 ;;		Unchanged: 0/0
  1627 ;; Data sizes:     COMMON   BANK0   BANK1   BANK3   BANK2
  1628 ;;      Params:         0       0       0       0       0
  1629 ;;      Locals:         0       0       0       0       0
  1630 ;;      Temps:          0       0       0       0       0
  1631 ;;      Totals:         0       0       0       0       0
  1632 ;;Total ram usage:        0 bytes
  1633 ;; Hardware stack levels used:    1
  1634 ;; Hardware stack levels required when called:    7
  1635 ;; This function calls:
  1636 ;;		Nothing
  1637 ;; This function is called by:
  1638 ;;		_main
  1639 ;; This function uses a non-reentrant model
  1640 ;;
  1641                           
  1642                           
  1643                           ;psect for function _ModeManager_Init
  1644  05E7                     _ModeManager_Init:
  1645  05E7                     l1886:	
  1646                           ;incstack = 0
  1647                           ; Regs used in _ModeManager_Init: [status,2]
  1648                           
  1649                           
  1650                           ;ModeManger/ModeManager.c: 13:   MODE=Normal_Mode;
  1651  05E7  01FD               	clrf	_MODE
  1652  05E8                     l212:
  1653  05E8  0008               	return
  1654  05E9                     __end_of_ModeManager_Init:
  1655                           
  1656                           	psect	text5
  1657  051E                     __ptext5:	
  1658 ;; *************** function _GPIO_Init *****************
  1659 ;; Defined at:
  1660 ;;		line 9 in file "gpio/gpio.c"
  1661 ;; Parameters:    Size  Location     Type
  1662 ;;		None
  1663 ;; Auto vars:     Size  Location     Type
  1664 ;;		None
  1665 ;; Return value:  Size  Location     Type
  1666 ;;                  1    wreg      void 
  1667 ;; Registers used:
  1668 ;;		wreg, status,2, status,0, btemp+1
  1669 ;; Tracked objects:
  1670 ;;		On entry : 0/0
  1671 ;;		On exit  : 0/0
  1672 ;;		Unchanged: 0/0
  1673 ;; Data sizes:     COMMON   BANK0   BANK1   BANK3   BANK2
  1674 ;;      Params:         0       0       0       0       0
  1675 ;;      Locals:         0       0       0       0       0
  1676 ;;      Temps:          0       0       0       0       0
  1677 ;;      Totals:         0       0       0       0       0
  1678 ;;Total ram usage:        0 bytes
  1679 ;; Hardware stack levels used:    1
  1680 ;; Hardware stack levels required when called:    7
  1681 ;; This function calls:
  1682 ;;		Nothing
  1683 ;; This function is called by:
  1684 ;;		_main
  1685 ;; This function uses a non-reentrant model
  1686 ;;
  1687                           
  1688                           
  1689                           ;psect for function _GPIO_Init
  1690  051E                     _GPIO_Init:
  1691  051E                     l1852:	
  1692                           ;incstack = 0
  1693                           ; Regs used in _GPIO_Init: [wreg+status,2+status,0+btemp+1]
  1694                           
  1695  051E                     l107:	
  1696                           ;gpio/gpio.c: 11:     (1==0)? ((TRISB&=~(1<<1))) :((TRISB|=(1<<1)));
  1697                           
  1698  051E  1683               	bsf	3,5	;RP0=1, select bank1
  1699  051F  1303               	bcf	3,6	;RP1=0, select bank1
  1700  0520  1486               	bsf	6,1	;volatile
  1701  0521                     l111:
  1702  0521  1406               	bsf	6,0	;volatile
  1703  0522                     l1858:
  1704  0522  30FB               	movlw	251
  1705  0523  00FF               	movwf	btemp+1
  1706  0524  087F               	movf	btemp+1,w
  1707  0525  0585               	andwf	5,f	;volatile
  1708  0526                     l1860:
  1709  0526  30F7               	movlw	247
  1710  0527  00FF               	movwf	btemp+1
  1711  0528  087F               	movf	btemp+1,w
  1712  0529  0585               	andwf	5,f	;volatile
  1713  052A                     l1862:
  1714  052A  30EF               	movlw	239
  1715  052B  00FF               	movwf	btemp+1
  1716  052C  087F               	movf	btemp+1,w
  1717  052D  0585               	andwf	5,f	;volatile
  1718  052E                     l1864:
  1719  052E  30DF               	movlw	223
  1720  052F  00FF               	movwf	btemp+1
  1721  0530  087F               	movf	btemp+1,w
  1722  0531  0585               	andwf	5,f	;volatile
  1723  0532                     l1866:
  1724  0532  0188               	clrf	8	;volatile
  1725  0533                     l1870:
  1726  0533  30EF               	movlw	239
  1727  0534  00FF               	movwf	btemp+1
  1728  0535  087F               	movf	btemp+1,w
  1729  0536  0586               	andwf	6,f	;volatile
  1730  0537                     l1872:
  1731  0537  30F7               	movlw	247
  1732  0538  00FF               	movwf	btemp+1
  1733  0539  087F               	movf	btemp+1,w
  1734  053A  0586               	andwf	6,f	;volatile
  1735  053B                     l142:
  1736  053B  0008               	return
  1737  053C                     __end_of_GPIO_Init:
  1738                           
  1739                           	psect	text6
  1740  003B                     __ptext6:	
  1741 ;; *************** function _Display_Init *****************
  1742 ;; Defined at:
  1743 ;;		line 23 in file "Display/Display.c"
  1744 ;; Parameters:    Size  Location     Type
  1745 ;;		None
  1746 ;; Auto vars:     Size  Location     Type
  1747 ;;		None
  1748 ;; Return value:  Size  Location     Type
  1749 ;;                  1    wreg      void 
  1750 ;; Registers used:
  1751 ;;		wreg, status,2, status,0, btemp+1, pclath, cstack
  1752 ;; Tracked objects:
  1753 ;;		On entry : 0/0
  1754 ;;		On exit  : 0/0
  1755 ;;		Unchanged: 0/0
  1756 ;; Data sizes:     COMMON   BANK0   BANK1   BANK3   BANK2
  1757 ;;      Params:         0       0       0       0       0
  1758 ;;      Locals:         0       0       0       0       0
  1759 ;;      Temps:          0       2       0       0       0
  1760 ;;      Totals:         0       2       0       0       0
  1761 ;;Total ram usage:        2 bytes
  1762 ;; Hardware stack levels used:    1
  1763 ;; Hardware stack levels required when called:    8
  1764 ;; This function calls:
  1765 ;;		___awdiv
  1766 ;;		___awmod
  1767 ;; This function is called by:
  1768 ;;		_main
  1769 ;; This function uses a non-reentrant model
  1770 ;;
  1771                           
  1772                           
  1773                           ;psect for function _Display_Init
  1774  003B                     _Display_Init:
  1775  003B                     l1874:	
  1776                           ;incstack = 0
  1777 ;; hardware stack exceeded
  1778                           ; Regs used in _Display_Init: [wreg+status,2+status,0+btemp+1+pclath+cstack]
  1779                           
  1780                           
  1781                           ;Display/Display.c: 25: Digit1=Clock.Hours/10;
  1782  003B  300A               	movlw	10
  1783  003C  1283               	bcf	3,5	;RP0=0, select bank0
  1784  003D  1303               	bcf	3,6	;RP1=0, select bank0
  1785  003E  00C4               	movwf	___awdiv@divisor
  1786  003F  3000               	movlw	0
  1787  0040  00C5               	movwf	___awdiv@divisor+1
  1788  0041  0826               	movf	_Clock+2,w
  1789  0042  00CC               	movwf	??_Display_Init
  1790  0043  01CD               	clrf	??_Display_Init+1
  1791  0044  084C               	movf	??_Display_Init,w
  1792  0045  00C6               	movwf	___awdiv@dividend
  1793  0046  084D               	movf	??_Display_Init+1,w
  1794  0047  00C7               	movwf	___awdiv@dividend+1
  1795  0048  120A  118A  20A6  120A  118A  	fcall	___awdiv
  1796  004D  1283               	bcf	3,5	;RP0=0, select bank0
  1797  004E  1303               	bcf	3,6	;RP1=0, select bank0
  1798  004F  0844               	movf	?___awdiv,w
  1799  0050  00FF               	movwf	btemp+1
  1800  0051  087F               	movf	btemp+1,w
  1801  0052  00AB               	movwf	_Digit1
  1802                           
  1803                           ;Display/Display.c: 26: Digit2=Clock.Hours%10;
  1804  0053  300A               	movlw	10
  1805  0054  00C4               	movwf	___awmod@divisor
  1806  0055  3000               	movlw	0
  1807  0056  00C5               	movwf	___awmod@divisor+1
  1808  0057  0826               	movf	_Clock+2,w
  1809  0058  00CC               	movwf	??_Display_Init
  1810  0059  01CD               	clrf	??_Display_Init+1
  1811  005A  084C               	movf	??_Display_Init,w
  1812  005B  00C6               	movwf	___awmod@dividend
  1813  005C  084D               	movf	??_Display_Init+1,w
  1814  005D  00C7               	movwf	___awmod@dividend+1
  1815  005E  120A  118A  21D1  120A  118A  	fcall	___awmod
  1816  0063  1283               	bcf	3,5	;RP0=0, select bank0
  1817  0064  1303               	bcf	3,6	;RP1=0, select bank0
  1818  0065  0844               	movf	?___awmod,w
  1819  0066  00FF               	movwf	btemp+1
  1820  0067  087F               	movf	btemp+1,w
  1821  0068  00AA               	movwf	_Digit2
  1822                           
  1823                           ;Display/Display.c: 27: Digit3=Clock.Minutes/10;
  1824  0069  300A               	movlw	10
  1825  006A  00C4               	movwf	___awdiv@divisor
  1826  006B  3000               	movlw	0
  1827  006C  00C5               	movwf	___awdiv@divisor+1
  1828  006D  0825               	movf	_Clock+1,w
  1829  006E  00CC               	movwf	??_Display_Init
  1830  006F  01CD               	clrf	??_Display_Init+1
  1831  0070  084C               	movf	??_Display_Init,w
  1832  0071  00C6               	movwf	___awdiv@dividend
  1833  0072  084D               	movf	??_Display_Init+1,w
  1834  0073  00C7               	movwf	___awdiv@dividend+1
  1835  0074  120A  118A  20A6  120A  118A  	fcall	___awdiv
  1836  0079  1283               	bcf	3,5	;RP0=0, select bank0
  1837  007A  1303               	bcf	3,6	;RP1=0, select bank0
  1838  007B  0844               	movf	?___awdiv,w
  1839  007C  00FF               	movwf	btemp+1
  1840  007D  087F               	movf	btemp+1,w
  1841  007E  00A9               	movwf	_Digit3
  1842                           
  1843                           ;Display/Display.c: 28: Digit4=Clock.Minutes%10;
  1844  007F  300A               	movlw	10
  1845  0080  00C4               	movwf	___awmod@divisor
  1846  0081  3000               	movlw	0
  1847  0082  00C5               	movwf	___awmod@divisor+1
  1848  0083  0825               	movf	_Clock+1,w
  1849  0084  00CC               	movwf	??_Display_Init
  1850  0085  01CD               	clrf	??_Display_Init+1
  1851  0086  084C               	movf	??_Display_Init,w
  1852  0087  00C6               	movwf	___awmod@dividend
  1853  0088  084D               	movf	??_Display_Init+1,w
  1854  0089  00C7               	movwf	___awmod@dividend+1
  1855  008A  120A  118A  21D1  120A  118A  	fcall	___awmod
  1856  008F  1283               	bcf	3,5	;RP0=0, select bank0
  1857  0090  1303               	bcf	3,6	;RP1=0, select bank0
  1858  0091  0844               	movf	?___awmod,w
  1859  0092  00FF               	movwf	btemp+1
  1860  0093  087F               	movf	btemp+1,w
  1861  0094  00A8               	movwf	_Digit4
  1862  0095                     l1876:
  1863                           
  1864                           ;Display/Display.c: 29: (PORTA&=~(1<<2));
  1865  0095  30FB               	movlw	251
  1866  0096  00FF               	movwf	btemp+1
  1867  0097  087F               	movf	btemp+1,w
  1868  0098  0585               	andwf	5,f	;volatile
  1869  0099                     l1878:
  1870                           
  1871                           ;Display/Display.c: 30: (PORTA&=~(1<<3));
  1872  0099  30F7               	movlw	247
  1873  009A  00FF               	movwf	btemp+1
  1874  009B  087F               	movf	btemp+1,w
  1875  009C  0585               	andwf	5,f	;volatile
  1876  009D                     l1880:
  1877                           
  1878                           ;Display/Display.c: 31: (PORTA&=~(1<<4));
  1879  009D  30EF               	movlw	239
  1880  009E  00FF               	movwf	btemp+1
  1881  009F  087F               	movf	btemp+1,w
  1882  00A0  0585               	andwf	5,f	;volatile
  1883  00A1                     l1882:
  1884                           
  1885                           ;Display/Display.c: 32: (PORTA&=~(1<<5));
  1886  00A1  30DF               	movlw	223
  1887  00A2  00FF               	movwf	btemp+1
  1888  00A3  087F               	movf	btemp+1,w
  1889  00A4  0585               	andwf	5,f	;volatile
  1890  00A5                     l173:
  1891  00A5  0008               	return
  1892  00A6                     __end_of_Display_Init:
  1893                           
  1894                           	psect	text7
  1895  01D1                     __ptext7:	
  1896 ;; *************** function ___awmod *****************
  1897 ;; Defined at:
  1898 ;;		line 5 in file "C:\Program Files (x86)\Microchip\xc8\v2.20\pic\sources\c90\common\awmod.c"
  1899 ;; Parameters:    Size  Location     Type
  1900 ;;  divisor         2   13[BANK0 ] int 
  1901 ;;  dividend        2   15[BANK0 ] int 
  1902 ;; Auto vars:     Size  Location     Type
  1903 ;;  sign            1   18[BANK0 ] unsigned char 
  1904 ;;  counter         1   17[BANK0 ] unsigned char 
  1905 ;; Return value:  Size  Location     Type
  1906 ;;                  2   13[BANK0 ] int 
  1907 ;; Registers used:
  1908 ;;		wreg, status,2, status,0, btemp+1
  1909 ;; Tracked objects:
  1910 ;;		On entry : 0/0
  1911 ;;		On exit  : 0/0
  1912 ;;		Unchanged: 0/0
  1913 ;; Data sizes:     COMMON   BANK0   BANK1   BANK3   BANK2
  1914 ;;      Params:         0       4       0       0       0
  1915 ;;      Locals:         0       2       0       0       0
  1916 ;;      Temps:          0       0       0       0       0
  1917 ;;      Totals:         0       6       0       0       0
  1918 ;;Total ram usage:        6 bytes
  1919 ;; Hardware stack levels used:    1
  1920 ;; Hardware stack levels required when called:    7
  1921 ;; This function calls:
  1922 ;;		Nothing
  1923 ;; This function is called by:
  1924 ;;		_Display_Init
  1925 ;; This function uses a non-reentrant model
  1926 ;;
  1927                           
  1928                           
  1929                           ;psect for function ___awmod
  1930  01D1                     ___awmod:
  1931  01D1                     l1814:	
  1932                           ;incstack = 0
  1933 ;; hardware stack exceeded
  1934                           ; Regs used in ___awmod: [wreg+status,2+status,0+btemp+1]
  1935                           
  1936  01D1  1283               	bcf	3,5	;RP0=0, select bank0
  1937  01D2  1303               	bcf	3,6	;RP1=0, select bank0
  1938  01D3  01C9               	clrf	___awmod@sign
  1939  01D4                     l1816:
  1940  01D4  1FC7               	btfss	___awmod@dividend+1,7
  1941  01D5  29D7               	goto	u1071
  1942  01D6  29D8               	goto	u1070
  1943  01D7                     u1071:
  1944  01D7  29DF               	goto	l1822
  1945  01D8                     u1070:
  1946  01D8                     l1818:
  1947  01D8  09C6               	comf	___awmod@dividend,f
  1948  01D9  09C7               	comf	___awmod@dividend+1,f
  1949  01DA  0AC6               	incf	___awmod@dividend,f
  1950  01DB  1903               	skipnz
  1951  01DC  0AC7               	incf	___awmod@dividend+1,f
  1952  01DD                     l1820:
  1953  01DD  01C9               	clrf	___awmod@sign
  1954  01DE  0AC9               	incf	___awmod@sign,f
  1955  01DF                     l1822:
  1956  01DF  1FC5               	btfss	___awmod@divisor+1,7
  1957  01E0  29E2               	goto	u1081
  1958  01E1  29E3               	goto	u1080
  1959  01E2                     u1081:
  1960  01E2  29E8               	goto	l1826
  1961  01E3                     u1080:
  1962  01E3                     l1824:
  1963  01E3  09C4               	comf	___awmod@divisor,f
  1964  01E4  09C5               	comf	___awmod@divisor+1,f
  1965  01E5  0AC4               	incf	___awmod@divisor,f
  1966  01E6  1903               	skipnz
  1967  01E7  0AC5               	incf	___awmod@divisor+1,f
  1968  01E8                     l1826:
  1969  01E8  0844               	movf	___awmod@divisor,w
  1970  01E9  0445               	iorwf	___awmod@divisor+1,w
  1971  01EA  1903               	btfsc	3,2
  1972  01EB  29ED               	goto	u1091
  1973  01EC  29EE               	goto	u1090
  1974  01ED                     u1091:
  1975  01ED  2A1D               	goto	l1844
  1976  01EE                     u1090:
  1977  01EE                     l1828:
  1978  01EE  01C8               	clrf	___awmod@counter
  1979  01EF  0AC8               	incf	___awmod@counter,f
  1980  01F0  29FC               	goto	l1834
  1981  01F1                     l1830:
  1982  01F1  3001               	movlw	1
  1983  01F2                     u1105:
  1984  01F2  1003               	clrc
  1985  01F3  0DC4               	rlf	___awmod@divisor,f
  1986  01F4  0DC5               	rlf	___awmod@divisor+1,f
  1987  01F5  3EFF               	addlw	-1
  1988  01F6  1D03               	skipz
  1989  01F7  29F2               	goto	u1105
  1990  01F8                     l1832:
  1991  01F8  3001               	movlw	1
  1992  01F9  00FF               	movwf	btemp+1
  1993  01FA  087F               	movf	btemp+1,w
  1994  01FB  07C8               	addwf	___awmod@counter,f
  1995  01FC                     l1834:
  1996  01FC  1FC5               	btfss	___awmod@divisor+1,7
  1997  01FD  29FF               	goto	u1111
  1998  01FE  2A00               	goto	u1110
  1999  01FF                     u1111:
  2000  01FF  29F1               	goto	l1830
  2001  0200                     u1110:
  2002  0200                     l1836:
  2003  0200  0845               	movf	___awmod@divisor+1,w
  2004  0201  0247               	subwf	___awmod@dividend+1,w
  2005  0202  1D03               	skipz
  2006  0203  2A06               	goto	u1125
  2007  0204  0844               	movf	___awmod@divisor,w
  2008  0205  0246               	subwf	___awmod@dividend,w
  2009  0206                     u1125:
  2010  0206  1C03               	skipc
  2011  0207  2A09               	goto	u1121
  2012  0208  2A0A               	goto	u1120
  2013  0209                     u1121:
  2014  0209  2A10               	goto	l1840
  2015  020A                     u1120:
  2016  020A                     l1838:
  2017  020A  0844               	movf	___awmod@divisor,w
  2018  020B  02C6               	subwf	___awmod@dividend,f
  2019  020C  0845               	movf	___awmod@divisor+1,w
  2020  020D  1C03               	skipc
  2021  020E  03C7               	decf	___awmod@dividend+1,f
  2022  020F  02C7               	subwf	___awmod@dividend+1,f
  2023  0210                     l1840:
  2024  0210  3001               	movlw	1
  2025  0211                     u1135:
  2026  0211  1003               	clrc
  2027  0212  0CC5               	rrf	___awmod@divisor+1,f
  2028  0213  0CC4               	rrf	___awmod@divisor,f
  2029  0214  3EFF               	addlw	-1
  2030  0215  1D03               	skipz
  2031  0216  2A11               	goto	u1135
  2032  0217                     l1842:
  2033  0217  3001               	movlw	1
  2034  0218  02C8               	subwf	___awmod@counter,f
  2035  0219  1D03               	btfss	3,2
  2036  021A  2A1C               	goto	u1141
  2037  021B  2A1D               	goto	u1140
  2038  021C                     u1141:
  2039  021C  2A00               	goto	l1836
  2040  021D                     u1140:
  2041  021D                     l1844:
  2042  021D  0849               	movf	___awmod@sign,w
  2043  021E  1903               	btfsc	3,2
  2044  021F  2A21               	goto	u1151
  2045  0220  2A22               	goto	u1150
  2046  0221                     u1151:
  2047  0221  2A27               	goto	l1848
  2048  0222                     u1150:
  2049  0222                     l1846:
  2050  0222  09C6               	comf	___awmod@dividend,f
  2051  0223  09C7               	comf	___awmod@dividend+1,f
  2052  0224  0AC6               	incf	___awmod@dividend,f
  2053  0225  1903               	skipnz
  2054  0226  0AC7               	incf	___awmod@dividend+1,f
  2055  0227                     l1848:
  2056  0227  0847               	movf	___awmod@dividend+1,w
  2057  0228  00C5               	movwf	?___awmod+1
  2058  0229  0846               	movf	___awmod@dividend,w
  2059  022A  00C4               	movwf	?___awmod
  2060  022B                     l610:
  2061  022B  0008               	return
  2062  022C                     __end_of___awmod:
  2063                           
  2064                           	psect	text8
  2065  00A6                     __ptext8:	
  2066 ;; *************** function ___awdiv *****************
  2067 ;; Defined at:
  2068 ;;		line 5 in file "C:\Program Files (x86)\Microchip\xc8\v2.20\pic\sources\c90\common\awdiv.c"
  2069 ;; Parameters:    Size  Location     Type
  2070 ;;  divisor         2   13[BANK0 ] int 
  2071 ;;  dividend        2   15[BANK0 ] int 
  2072 ;; Auto vars:     Size  Location     Type
  2073 ;;  quotient        2   19[BANK0 ] int 
  2074 ;;  sign            1   18[BANK0 ] unsigned char 
  2075 ;;  counter         1   17[BANK0 ] unsigned char 
  2076 ;; Return value:  Size  Location     Type
  2077 ;;                  2   13[BANK0 ] int 
  2078 ;; Registers used:
  2079 ;;		wreg, status,2, status,0, btemp+1
  2080 ;; Tracked objects:
  2081 ;;		On entry : 0/0
  2082 ;;		On exit  : 0/0
  2083 ;;		Unchanged: 0/0
  2084 ;; Data sizes:     COMMON   BANK0   BANK1   BANK3   BANK2
  2085 ;;      Params:         0       4       0       0       0
  2086 ;;      Locals:         0       4       0       0       0
  2087 ;;      Temps:          0       0       0       0       0
  2088 ;;      Totals:         0       8       0       0       0
  2089 ;;Total ram usage:        8 bytes
  2090 ;; Hardware stack levels used:    1
  2091 ;; Hardware stack levels required when called:    7
  2092 ;; This function calls:
  2093 ;;		Nothing
  2094 ;; This function is called by:
  2095 ;;		_Display_Init
  2096 ;; This function uses a non-reentrant model
  2097 ;;
  2098                           
  2099                           
  2100                           ;psect for function ___awdiv
  2101  00A6                     ___awdiv:
  2102  00A6                     l1770:	
  2103                           ;incstack = 0
  2104 ;; hardware stack exceeded
  2105                           ; Regs used in ___awdiv: [wreg+status,2+status,0+btemp+1]
  2106                           
  2107  00A6  1283               	bcf	3,5	;RP0=0, select bank0
  2108  00A7  1303               	bcf	3,6	;RP1=0, select bank0
  2109  00A8  01C9               	clrf	___awdiv@sign
  2110  00A9                     l1772:
  2111  00A9  1FC5               	btfss	___awdiv@divisor+1,7
  2112  00AA  28AC               	goto	u971
  2113  00AB  28AD               	goto	u970
  2114  00AC                     u971:
  2115  00AC  28B4               	goto	l1778
  2116  00AD                     u970:
  2117  00AD                     l1774:
  2118  00AD  09C4               	comf	___awdiv@divisor,f
  2119  00AE  09C5               	comf	___awdiv@divisor+1,f
  2120  00AF  0AC4               	incf	___awdiv@divisor,f
  2121  00B0  1903               	skipnz
  2122  00B1  0AC5               	incf	___awdiv@divisor+1,f
  2123  00B2                     l1776:
  2124  00B2  01C9               	clrf	___awdiv@sign
  2125  00B3  0AC9               	incf	___awdiv@sign,f
  2126  00B4                     l1778:
  2127  00B4  1FC7               	btfss	___awdiv@dividend+1,7
  2128  00B5  28B7               	goto	u981
  2129  00B6  28B8               	goto	u980
  2130  00B7                     u981:
  2131  00B7  28C1               	goto	l1784
  2132  00B8                     u980:
  2133  00B8                     l1780:
  2134  00B8  09C6               	comf	___awdiv@dividend,f
  2135  00B9  09C7               	comf	___awdiv@dividend+1,f
  2136  00BA  0AC6               	incf	___awdiv@dividend,f
  2137  00BB  1903               	skipnz
  2138  00BC  0AC7               	incf	___awdiv@dividend+1,f
  2139  00BD                     l1782:
  2140  00BD  3001               	movlw	1
  2141  00BE  00FF               	movwf	btemp+1
  2142  00BF  087F               	movf	btemp+1,w
  2143  00C0  06C9               	xorwf	___awdiv@sign,f
  2144  00C1                     l1784:
  2145  00C1  01CA               	clrf	___awdiv@quotient
  2146  00C2  01CB               	clrf	___awdiv@quotient+1
  2147  00C3                     l1786:
  2148  00C3  0844               	movf	___awdiv@divisor,w
  2149  00C4  0445               	iorwf	___awdiv@divisor+1,w
  2150  00C5  1903               	btfsc	3,2
  2151  00C6  28C8               	goto	u991
  2152  00C7  28C9               	goto	u990
  2153  00C8                     u991:
  2154  00C8  2900               	goto	l1806
  2155  00C9                     u990:
  2156  00C9                     l1788:
  2157  00C9  01C8               	clrf	___awdiv@counter
  2158  00CA  0AC8               	incf	___awdiv@counter,f
  2159  00CB  28D7               	goto	l1794
  2160  00CC                     l1790:
  2161  00CC  3001               	movlw	1
  2162  00CD                     u1005:
  2163  00CD  1003               	clrc
  2164  00CE  0DC4               	rlf	___awdiv@divisor,f
  2165  00CF  0DC5               	rlf	___awdiv@divisor+1,f
  2166  00D0  3EFF               	addlw	-1
  2167  00D1  1D03               	skipz
  2168  00D2  28CD               	goto	u1005
  2169  00D3                     l1792:
  2170  00D3  3001               	movlw	1
  2171  00D4  00FF               	movwf	btemp+1
  2172  00D5  087F               	movf	btemp+1,w
  2173  00D6  07C8               	addwf	___awdiv@counter,f
  2174  00D7                     l1794:
  2175  00D7  1FC5               	btfss	___awdiv@divisor+1,7
  2176  00D8  28DA               	goto	u1011
  2177  00D9  28DB               	goto	u1010
  2178  00DA                     u1011:
  2179  00DA  28CC               	goto	l1790
  2180  00DB                     u1010:
  2181  00DB                     l1796:
  2182  00DB  3001               	movlw	1
  2183  00DC                     u1025:
  2184  00DC  1003               	clrc
  2185  00DD  0DCA               	rlf	___awdiv@quotient,f
  2186  00DE  0DCB               	rlf	___awdiv@quotient+1,f
  2187  00DF  3EFF               	addlw	-1
  2188  00E0  1D03               	skipz
  2189  00E1  28DC               	goto	u1025
  2190  00E2  0845               	movf	___awdiv@divisor+1,w
  2191  00E3  0247               	subwf	___awdiv@dividend+1,w
  2192  00E4  1D03               	skipz
  2193  00E5  28E8               	goto	u1035
  2194  00E6  0844               	movf	___awdiv@divisor,w
  2195  00E7  0246               	subwf	___awdiv@dividend,w
  2196  00E8                     u1035:
  2197  00E8  1C03               	skipc
  2198  00E9  28EB               	goto	u1031
  2199  00EA  28EC               	goto	u1030
  2200  00EB                     u1031:
  2201  00EB  28F3               	goto	l1802
  2202  00EC                     u1030:
  2203  00EC                     l1798:
  2204  00EC  0844               	movf	___awdiv@divisor,w
  2205  00ED  02C6               	subwf	___awdiv@dividend,f
  2206  00EE  0845               	movf	___awdiv@divisor+1,w
  2207  00EF  1C03               	skipc
  2208  00F0  03C7               	decf	___awdiv@dividend+1,f
  2209  00F1  02C7               	subwf	___awdiv@dividend+1,f
  2210  00F2                     l1800:
  2211  00F2  144A               	bsf	___awdiv@quotient,0
  2212  00F3                     l1802:
  2213  00F3  3001               	movlw	1
  2214  00F4                     u1045:
  2215  00F4  1003               	clrc
  2216  00F5  0CC5               	rrf	___awdiv@divisor+1,f
  2217  00F6  0CC4               	rrf	___awdiv@divisor,f
  2218  00F7  3EFF               	addlw	-1
  2219  00F8  1D03               	skipz
  2220  00F9  28F4               	goto	u1045
  2221  00FA                     l1804:
  2222  00FA  3001               	movlw	1
  2223  00FB  02C8               	subwf	___awdiv@counter,f
  2224  00FC  1D03               	btfss	3,2
  2225  00FD  28FF               	goto	u1051
  2226  00FE  2900               	goto	u1050
  2227  00FF                     u1051:
  2228  00FF  28DB               	goto	l1796
  2229  0100                     u1050:
  2230  0100                     l1806:
  2231  0100  0849               	movf	___awdiv@sign,w
  2232  0101  1903               	btfsc	3,2
  2233  0102  2904               	goto	u1061
  2234  0103  2905               	goto	u1060
  2235  0104                     u1061:
  2236  0104  290A               	goto	l1810
  2237  0105                     u1060:
  2238  0105                     l1808:
  2239  0105  09CA               	comf	___awdiv@quotient,f
  2240  0106  09CB               	comf	___awdiv@quotient+1,f
  2241  0107  0ACA               	incf	___awdiv@quotient,f
  2242  0108  1903               	skipnz
  2243  0109  0ACB               	incf	___awdiv@quotient+1,f
  2244  010A                     l1810:
  2245  010A  084B               	movf	___awdiv@quotient+1,w
  2246  010B  00C5               	movwf	?___awdiv+1
  2247  010C  084A               	movf	___awdiv@quotient,w
  2248  010D  00C4               	movwf	?___awdiv
  2249  010E                     l597:
  2250  010E  0008               	return
  2251  010F                     __end_of___awdiv:
  2252                           
  2253                           	psect	text9
  2254  05DF                     __ptext9:	
  2255 ;; *************** function _Clock_Init *****************
  2256 ;; Defined at:
  2257 ;;		line 13 in file "Clock/Clock.c"
  2258 ;; Parameters:    Size  Location     Type
  2259 ;;		None
  2260 ;; Auto vars:     Size  Location     Type
  2261 ;;		None
  2262 ;; Return value:  Size  Location     Type
  2263 ;;                  1    wreg      void 
  2264 ;; Registers used:
  2265 ;;		status,2
  2266 ;; Tracked objects:
  2267 ;;		On entry : 0/0
  2268 ;;		On exit  : 0/0
  2269 ;;		Unchanged: 0/0
  2270 ;; Data sizes:     COMMON   BANK0   BANK1   BANK3   BANK2
  2271 ;;      Params:         0       0       0       0       0
  2272 ;;      Locals:         0       0       0       0       0
  2273 ;;      Temps:          0       0       0       0       0
  2274 ;;      Totals:         0       0       0       0       0
  2275 ;;Total ram usage:        0 bytes
  2276 ;; Hardware stack levels used:    1
  2277 ;; Hardware stack levels required when called:    7
  2278 ;; This function calls:
  2279 ;;		Nothing
  2280 ;; This function is called by:
  2281 ;;		_main
  2282 ;; This function uses a non-reentrant model
  2283 ;;
  2284                           
  2285                           
  2286                           ;psect for function _Clock_Init
  2287  05DF                     _Clock_Init:
  2288  05DF                     l1884:	
  2289                           ;incstack = 0
  2290                           ; Regs used in _Clock_Init: [status,2]
  2291                           
  2292                           
  2293                           ;Clock/Clock.c: 15:     Clock.Second=0;
  2294  05DF  1283               	bcf	3,5	;RP0=0, select bank0
  2295  05E0  1303               	bcf	3,6	;RP1=0, select bank0
  2296  05E1  01A4               	clrf	_Clock
  2297                           
  2298                           ;Clock/Clock.c: 16:     Clock.Minutes=0;
  2299  05E2  01A5               	clrf	_Clock+1
  2300                           
  2301                           ;Clock/Clock.c: 17:     Clock.Hours=0;
  2302  05E3  01A6               	clrf	_Clock+2
  2303  05E4                     l291:
  2304  05E4  0008               	return
  2305  05E5                     __end_of_Clock_Init:
  2306                           
  2307                           	psect	text10
  2308  04D9                     __ptext10:	
  2309 ;; *************** function _Buttons_Init *****************
  2310 ;; Defined at:
  2311 ;;		line 15 in file "Buttons/Buttons.c"
  2312 ;; Parameters:    Size  Location     Type
  2313 ;;		None
  2314 ;; Auto vars:     Size  Location     Type
  2315 ;;		None
  2316 ;; Return value:  Size  Location     Type
  2317 ;;                  1    wreg      void 
  2318 ;; Registers used:
  2319 ;;		wreg, fsr0l, fsr0h, status,2, status,0, btemp+1, pclath, cstack
  2320 ;; Tracked objects:
  2321 ;;		On entry : 0/0
  2322 ;;		On exit  : 0/0
  2323 ;;		Unchanged: 0/0
  2324 ;; Data sizes:     COMMON   BANK0   BANK1   BANK3   BANK2
  2325 ;;      Params:         0       0       0       0       0
  2326 ;;      Locals:         0       0       0       0       0
  2327 ;;      Temps:          0       0       0       0       0
  2328 ;;      Totals:         0       0       0       0       0
  2329 ;;Total ram usage:        0 bytes
  2330 ;; Hardware stack levels used:    1
  2331 ;; Hardware stack levels required when called:    8
  2332 ;; This function calls:
  2333 ;;		_memset
  2334 ;; This function is called by:
  2335 ;;		_main
  2336 ;; This function uses a non-reentrant model
  2337 ;;
  2338                           
  2339                           
  2340                           ;psect for function _Buttons_Init
  2341  04D9                     _Buttons_Init:
  2342  04D9                     l2332:	
  2343                           ;incstack = 0
  2344 ;; hardware stack exceeded
  2345                           ; Regs used in _Buttons_Init: [wreg-fsr0h+status,2+status,0+btemp+1+pclath+cstack]
  2346                           
  2347                           
  2348                           ;Buttons/Buttons.c: 17:     memset(Debounce_UpButton,1,sizeof(Debounce_UpButton));
  2349  04D9  3001               	movlw	1
  2350  04DA  1283               	bcf	3,5	;RP0=0, select bank0
  2351  04DB  1303               	bcf	3,6	;RP1=0, select bank0
  2352  04DC  00C4               	movwf	memset@c
  2353  04DD  3000               	movlw	0
  2354  04DE  00C5               	movwf	memset@c+1
  2355  04DF  3003               	movlw	3
  2356  04E0  00C6               	movwf	memset@n
  2357  04E1  3000               	movlw	0
  2358  04E2  00C7               	movwf	memset@n+1
  2359  04E3  3031               	movlw	(low (_Debounce_UpButton| 0))& (0+255)
  2360  04E4  120A  118A  24FC  120A  118A  	fcall	_memset
  2361                           
  2362                           ;Buttons/Buttons.c: 18:     memset(Debounce_DownButton,1,sizeof(Debounce_DownButton));
  2363  04E9  3001               	movlw	1
  2364  04EA  1283               	bcf	3,5	;RP0=0, select bank0
  2365  04EB  1303               	bcf	3,6	;RP1=0, select bank0
  2366  04EC  00C4               	movwf	memset@c
  2367  04ED  3000               	movlw	0
  2368  04EE  00C5               	movwf	memset@c+1
  2369  04EF  3003               	movlw	3
  2370  04F0  00C6               	movwf	memset@n
  2371  04F1  3000               	movlw	0
  2372  04F2  00C7               	movwf	memset@n+1
  2373  04F3  302E               	movlw	(low (_Debounce_DownButton| 0))& (0+255)
  2374  04F4  120A  118A  24FC  120A  118A  	fcall	_memset
  2375  04F9                     l2334:
  2376                           
  2377                           ;Buttons/Buttons.c: 19:     INTCONbits.INTF=0;
  2378  04F9  108B               	bcf	11,1	;volatile
  2379  04FA                     l2336:
  2380                           
  2381                           ;Buttons/Buttons.c: 20:     INTCONbits.INTE=1;
  2382  04FA  160B               	bsf	11,4	;volatile
  2383  04FB                     l87:
  2384  04FB  0008               	return
  2385  04FC                     __end_of_Buttons_Init:
  2386                           
  2387                           	psect	text11
  2388  04FC                     __ptext11:	
  2389 ;; *************** function _memset *****************
  2390 ;; Defined at:
  2391 ;;		line 8 in file "C:\Program Files (x86)\Microchip\xc8\v2.20\pic\sources\c90\common\memset.c"
  2392 ;; Parameters:    Size  Location     Type
  2393 ;;  p1              1    wreg     PTR void 
  2394 ;;		 -> Debounce_DownButton(3), Debounce_UpButton(3), Task_Flag(3), 
  2395 ;;  c               2   13[BANK0 ] int 
  2396 ;;  n               2   15[BANK0 ] unsigned int 
  2397 ;; Auto vars:     Size  Location     Type
  2398 ;;  p1              1   18[BANK0 ] PTR void 
  2399 ;;		 -> Debounce_DownButton(3), Debounce_UpButton(3), Task_Flag(3), 
  2400 ;;  p               1   17[BANK0 ] PTR unsigned char 
  2401 ;;		 -> Debounce_DownButton(3), Debounce_UpButton(3), Task_Flag(3), 
  2402 ;; Return value:  Size  Location     Type
  2403 ;;                  1    wreg      PTR void 
  2404 ;; Registers used:
  2405 ;;		wreg, fsr0l, fsr0h, status,2, status,0, btemp+1
  2406 ;; Tracked objects:
  2407 ;;		On entry : 0/0
  2408 ;;		On exit  : 0/0
  2409 ;;		Unchanged: 0/0
  2410 ;; Data sizes:     COMMON   BANK0   BANK1   BANK3   BANK2
  2411 ;;      Params:         0       4       0       0       0
  2412 ;;      Locals:         0       2       0       0       0
  2413 ;;      Temps:          0       0       0       0       0
  2414 ;;      Totals:         0       6       0       0       0
  2415 ;;Total ram usage:        6 bytes
  2416 ;; Hardware stack levels used:    1
  2417 ;; Hardware stack levels required when called:    7
  2418 ;; This function calls:
  2419 ;;		Nothing
  2420 ;; This function is called by:
  2421 ;;		_Scheduler_Init
  2422 ;;		_Buttons_Init
  2423 ;; This function uses a non-reentrant model
  2424 ;;
  2425                           
  2426                           
  2427                           ;psect for function _memset
  2428  04FC                     _memset:
  2429                           
  2430                           ;incstack = 0
  2431 ;; hardware stack exceeded
  2432                           ; Regs used in _memset: [wreg-fsr0h+status,2+status,0+btemp+1]
  2433                           ;memset@p1 stored from wreg
  2434  04FC  1283               	bcf	3,5	;RP0=0, select bank0
  2435  04FD  1303               	bcf	3,6	;RP1=0, select bank0
  2436  04FE  00C9               	movwf	memset@p1
  2437  04FF                     l2310:
  2438  04FF  0849               	movf	memset@p1,w
  2439  0500  00FF               	movwf	btemp+1
  2440  0501  087F               	movf	btemp+1,w
  2441  0502  00C8               	movwf	memset@p
  2442  0503  2D0F               	goto	l2316
  2443  0504                     l2312:
  2444  0504  0844               	movf	memset@c,w
  2445  0505  00FF               	movwf	btemp+1
  2446  0506  0848               	movf	memset@p,w
  2447  0507  0084               	movwf	4
  2448  0508  087F               	movf	btemp+1,w
  2449  0509  1383               	bcf	3,7	;select IRP bank0
  2450  050A  0080               	movwf	0
  2451  050B                     l2314:
  2452  050B  3001               	movlw	1
  2453  050C  00FF               	movwf	btemp+1
  2454  050D  087F               	movf	btemp+1,w
  2455  050E  07C8               	addwf	memset@p,f
  2456  050F                     l2316:
  2457  050F  3001               	movlw	1
  2458  0510  02C6               	subwf	memset@n,f
  2459  0511  3000               	movlw	0
  2460  0512  1C03               	skipc
  2461  0513  03C7               	decf	memset@n+1,f
  2462  0514  02C7               	subwf	memset@n+1,f
  2463  0515  0A46               	incf	memset@n,w
  2464  0516  1D03               	skipz
  2465  0517  2D1C               	goto	u1591
  2466  0518  0A47               	incf	memset@n+1,w
  2467  0519  1D03               	btfss	3,2
  2468  051A  2D1C               	goto	u1591
  2469  051B  2D1D               	goto	u1590
  2470  051C                     u1591:
  2471  051C  2D04               	goto	l2312
  2472  051D                     u1590:
  2473  051D                     l898:
  2474  051D  0008               	return
  2475  051E                     __end_of_memset:
  2476                           
  2477                           	psect	text12
  2478  03B7                     __ptext12:	
  2479 ;; *************** function _ISR *****************
  2480 ;; Defined at:
  2481 ;;		line 10 in file "Interrupt/Interrupt.c"
  2482 ;; Parameters:    Size  Location     Type
  2483 ;;		None
  2484 ;; Auto vars:     Size  Location     Type
  2485 ;;		None
  2486 ;; Return value:  Size  Location     Type
  2487 ;;                  1    wreg      void 
  2488 ;; Registers used:
  2489 ;;		wreg, fsr0l, fsr0h, status,2, status,0, btemp+1, pclath, cstack
  2490 ;; Tracked objects:
  2491 ;;		On entry : 0/0
  2492 ;;		On exit  : 0/0
  2493 ;;		Unchanged: 0/0
  2494 ;; Data sizes:     COMMON   BANK0   BANK1   BANK3   BANK2
  2495 ;;      Params:         0       0       0       0       0
  2496 ;;      Locals:         0       0       0       0       0
  2497 ;;      Temps:          0       4       0       0       0
  2498 ;;      Totals:         0       4       0       0       0
  2499 ;;Total ram usage:        4 bytes
  2500 ;; Hardware stack levels used:    1
  2501 ;; Hardware stack levels required when called:    6
  2502 ;; This function calls:
  2503 ;;		_EXTI_SettingButton_CB
  2504 ;;		_Timer0_CB
  2505 ;; This function is called by:
  2506 ;;		Interrupt level 1
  2507 ;; This function uses a non-reentrant model
  2508 ;;
  2509                           
  2510                           
  2511                           ;psect for function _ISR
  2512  03B7                     _ISR:
  2513  03B7                     i1l2510:
  2514                           
  2515                           ;Interrupt/Interrupt.c: 12:     if(INTCONbits.TMR0IF==1)
  2516  03B7  1D0B               	btfss	11,2	;volatile
  2517  03B8  2BBA               	goto	u172_21
  2518  03B9  2BBB               	goto	u172_20
  2519  03BA                     u172_21:
  2520  03BA  2BCB               	goto	i1l238
  2521  03BB                     u172_20:
  2522  03BB                     i1l2512:
  2523                           
  2524                           ;Interrupt/Interrupt.c: 13:     {;Interrupt/Interrupt.c: 15:       TMR0 = 100;
  2525  03BB  3064               	movlw	100
  2526  03BC  0081               	movwf	1	;volatile
  2527  03BD                     i1l2514:
  2528                           
  2529                           ;Interrupt/Interrupt.c: 16:       TMR0IF=0;
  2530  03BD  110B               	bcf	11,2	;volatile
  2531  03BE                     i1l2516:
  2532                           
  2533                           ;Interrupt/Interrupt.c: 17:       Interrupt_CbStruct.Timer_CB();
  2534  03BE  300A               	movlw	low (_Interrupt_CbStruct-__stringbase)
  2535  03BF  0084               	movwf	4
  2536  03C0  120A  118A  2585  120A  118A  	fcall	stringdir
  2537  03C5  120A  118A  2026  120A  118A  	fcall	i1fptable
  2538                           
  2539                           ;Interrupt/Interrupt.c: 19:     }
  2540  03CA  2BDC               	goto	i1l241
  2541  03CB                     i1l238:	
  2542                           ;Interrupt/Interrupt.c: 20:     else if(INTCONbits.INTF==1)
  2543                           
  2544  03CB  1C8B               	btfss	11,1	;volatile
  2545  03CC  2BCE               	goto	u173_21
  2546  03CD  2BCF               	goto	u173_20
  2547  03CE                     u173_21:
  2548  03CE  2BDC               	goto	i1l241
  2549  03CF                     u173_20:
  2550  03CF                     i1l2518:
  2551                           
  2552                           ;Interrupt/Interrupt.c: 21:     {;Interrupt/Interrupt.c: 22:       INTCONbits.INTF=0;
  2553  03CF  108B               	bcf	11,1	;volatile
  2554  03D0                     i1l2520:
  2555                           
  2556                           ;Interrupt/Interrupt.c: 23:       Interrupt_CbStruct.EXTI_CB();
  2557  03D0  300B               	movlw	low (((_Interrupt_CbStruct+1)-__stringbase)| (0+32768))
  2558  03D1  0084               	movwf	4
  2559  03D2  120A  118A  2585  120A  118A  	fcall	stringdir
  2560  03D7  120A  118A  2026  120A  118A  	fcall	i1fptable
  2561  03DC                     i1l241:
  2562  03DC  1283               	bcf	3,5	;RP0=0, select bank0
  2563  03DD  1303               	bcf	3,6	;RP1=0, select bank0
  2564  03DE  0843               	movf	??_ISR+3,w
  2565  03DF  00FF               	movwf	btemp+1
  2566  03E0  0842               	movf	??_ISR+2,w
  2567  03E1  008A               	movwf	10
  2568  03E2  0841               	movf	??_ISR+1,w
  2569  03E3  0084               	movwf	4
  2570  03E4  0E40               	swapf	??_ISR^0,w
  2571  03E5  0083               	movwf	3
  2572  03E6  0EFE               	swapf	btemp,f
  2573  03E7  0E7E               	swapf	btemp,w
  2574  03E8  0009               	retfie
  2575  03E9                     __end_of_ISR:
  2576                           
  2577                           	psect	intentry
  2578  0004                     __pintentry:	
  2579                           ;incstack = 0
  2580 ;; hardware stack exceeded
  2581                           ; Regs used in _ISR: [wreg-fsr0h+status,2+status,0+btemp+1+pclath+cstack]
  2582                           
  2583  0004                     interrupt_function:
  2584  007E                     saved_w	set	btemp
  2585  0004  00FE               	movwf	btemp
  2586  0005  0E03               	swapf	3,w
  2587  0006  1283               	bcf	3,5	;RP0=0, select bank0
  2588  0007  1303               	bcf	3,6	;RP1=0, select bank0
  2589  0008  00C0               	movwf	??_ISR
  2590  0009  0804               	movf	4,w
  2591  000A  00C1               	movwf	??_ISR+1
  2592  000B  080A               	movf	10,w
  2593  000C  00C2               	movwf	??_ISR+2
  2594  000D  087F               	movf	btemp+1,w
  2595  000E  00C3               	movwf	??_ISR+3
  2596  000F  120A  118A  2BB7   	ljmp	_ISR
  2597                           
  2598                           	psect	text13
  2599  055A                     __ptext13:	
  2600 ;; *************** function _Timer0_CB *****************
  2601 ;; Defined at:
  2602 ;;		line 38 in file "Timer/Timer.c"
  2603 ;; Parameters:    Size  Location     Type
  2604 ;;		None
  2605 ;; Auto vars:     Size  Location     Type
  2606 ;;		None
  2607 ;; Return value:  Size  Location     Type
  2608 ;;                  1    wreg      void 
  2609 ;; Registers used:
  2610 ;;		wreg, fsr0l, fsr0h, status,2, status,0, btemp+1, pclath, cstack
  2611 ;; Tracked objects:
  2612 ;;		On entry : 0/0
  2613 ;;		On exit  : 0/0
  2614 ;;		Unchanged: 0/0
  2615 ;; Data sizes:     COMMON   BANK0   BANK1   BANK3   BANK2
  2616 ;;      Params:         0       0       0       0       0
  2617 ;;      Locals:         0       0       0       0       0
  2618 ;;      Temps:          0       0       0       0       0
  2619 ;;      Totals:         0       0       0       0       0
  2620 ;;Total ram usage:        0 bytes
  2621 ;; Hardware stack levels used:    1
  2622 ;; Hardware stack levels required when called:    5
  2623 ;; This function calls:
  2624 ;;		_Scheduler_Update
  2625 ;; This function is called by:
  2626 ;;		_ISR
  2627 ;; This function uses a non-reentrant model
  2628 ;;
  2629                           
  2630                           
  2631                           ;psect for function _Timer0_CB
  2632  055A                     _Timer0_CB:
  2633  055A                     i1l2506:	
  2634                           ;incstack = 0
  2635 ;; hardware stack exceeded
  2636                           ; Regs used in _Timer0_CB: [wreg-fsr0h+status,2+status,0+btemp+1+pclath+cstack]
  2637                           
  2638                           
  2639                           ;Timer/Timer.c: 40:    Tick++;
  2640  055A  3001               	movlw	1
  2641  055B  1283               	bcf	3,5	;RP0=0, select bank0
  2642  055C  1303               	bcf	3,6	;RP1=0, select bank0
  2643  055D  07A0               	addwf	_Tick,f
  2644  055E  3000               	movlw	0
  2645  055F  1803               	skipnc
  2646  0560  3001               	movlw	1
  2647  0561  07A1               	addwf	_Tick+1,f
  2648  0562  3000               	movlw	0
  2649  0563  1803               	skipnc
  2650  0564  3001               	movlw	1
  2651  0565  07A2               	addwf	_Tick+2,f
  2652  0566  3000               	movlw	0
  2653  0567  1803               	skipnc
  2654  0568  3001               	movlw	1
  2655  0569  07A3               	addwf	_Tick+3,f
  2656  056A                     i1l2508:
  2657                           
  2658                           ;Timer/Timer.c: 42:    Scheduler_Update();
  2659  056A  120A  118A  210F  120A  118A  	fcall	_Scheduler_Update
  2660  056F                     i1l70:
  2661  056F  0008               	return
  2662  0570                     __end_of_Timer0_CB:
  2663                           
  2664                           	psect	text14
  2665  010F                     __ptext14:	
  2666 ;; *************** function _Scheduler_Update *****************
  2667 ;; Defined at:
  2668 ;;		line 16 in file "Scheduler/Scheduler.c"
  2669 ;; Parameters:    Size  Location     Type
  2670 ;;		None
  2671 ;; Auto vars:     Size  Location     Type
  2672 ;;  i               1    8[BANK0 ] unsigned char 
  2673 ;; Return value:  Size  Location     Type
  2674 ;;                  1    wreg      void 
  2675 ;; Registers used:
  2676 ;;		wreg, fsr0l, fsr0h, status,2, status,0, btemp+1, pclath, cstack
  2677 ;; Tracked objects:
  2678 ;;		On entry : 0/0
  2679 ;;		On exit  : 0/0
  2680 ;;		Unchanged: 0/0
  2681 ;; Data sizes:     COMMON   BANK0   BANK1   BANK3   BANK2
  2682 ;;      Params:         0       0       0       0       0
  2683 ;;      Locals:         0       1       0       0       0
  2684 ;;      Temps:          0       6       0       0       0
  2685 ;;      Totals:         0       7       0       0       0
  2686 ;;Total ram usage:        7 bytes
  2687 ;; Hardware stack levels used:    1
  2688 ;; Hardware stack levels required when called:    4
  2689 ;; This function calls:
  2690 ;;		_Scheduler_Task1
  2691 ;;		_Scheduler_Task2
  2692 ;;		_Scheduler_Task3
  2693 ;;		___bmul
  2694 ;;		___llmod
  2695 ;; This function is called by:
  2696 ;;		_Timer0_CB
  2697 ;; This function uses a non-reentrant model
  2698 ;;
  2699                           
  2700                           
  2701                           ;psect for function _Scheduler_Update
  2702  010F                     _Scheduler_Update:
  2703  010F                     i1l2492:	
  2704                           ;incstack = 0
  2705 ;; hardware stack exceeded
  2706                           ; Regs used in _Scheduler_Update: [wreg-fsr0h+status,2+status,0+btemp+1+pclath+cstack]
  2707                           
  2708                           
  2709                           ;Scheduler/Scheduler.c: 19:        for(uint8_t i=0 ;i<(3UL);i++)
  2710  010F  1283               	bcf	3,5	;RP0=0, select bank0
  2711  0110  1303               	bcf	3,6	;RP1=0, select bank0
  2712  0111  01BF               	clrf	Scheduler_Update@i
  2713  0112                     i1l2498:
  2714                           
  2715                           ;Scheduler/Scheduler.c: 20:        {;Scheduler/Scheduler.c: 22:            if((Tick%(Tas
      +                          ks[i].Task_Peroid/(1UL))) ? 0:1)
  2716  0112  3003               	movlw	3
  2717  0113  00FF               	movwf	btemp+1
  2718  0114  087F               	movf	btemp+1,w
  2719  0115  00F0               	movwf	___bmul@multiplicand
  2720  0116  083F               	movf	Scheduler_Update@i,w
  2721  0117  120A  118A  2570  120A  118A  	fcall	___bmul
  2722  011C  3E01               	addlw	low ((_Tasks-__stringbase)| (0+32768))
  2723  011D  0084               	movwf	4
  2724  011E  120A  118A  2585  120A  118A  	fcall	stringdir
  2725  0123  1283               	bcf	3,5	;RP0=0, select bank0
  2726  0124  1303               	bcf	3,6	;RP1=0, select bank0
  2727  0125  00B9               	movwf	??_Scheduler_Update
  2728  0126  120A  118A  2585  120A  118A  	fcall	stringdir
  2729  012B  00BA               	movwf	??_Scheduler_Update+1
  2730  012C  0839               	movf	??_Scheduler_Update,w
  2731  012D  00BB               	movwf	??_Scheduler_Update+2
  2732  012E  083A               	movf	??_Scheduler_Update+1,w
  2733  012F  00BC               	movwf	??_Scheduler_Update+3
  2734  0130  01BD               	clrf	??_Scheduler_Update+4
  2735  0131  01BE               	clrf	??_Scheduler_Update+5
  2736  0132  083E               	movf	??_Scheduler_Update+5,w
  2737  0133  00F6               	movwf	___llmod@divisor+3
  2738  0134  083D               	movf	??_Scheduler_Update+4,w
  2739  0135  00F5               	movwf	___llmod@divisor+2
  2740  0136  083C               	movf	??_Scheduler_Update+3,w
  2741  0137  00F4               	movwf	___llmod@divisor+1
  2742  0138  083B               	movf	??_Scheduler_Update+2,w
  2743  0139  00F3               	movwf	___llmod@divisor
  2744  013A  0823               	movf	_Tick+3,w
  2745  013B  00FA               	movwf	___llmod@dividend+3
  2746  013C  0822               	movf	_Tick+2,w
  2747  013D  00F9               	movwf	___llmod@dividend+2
  2748  013E  0821               	movf	_Tick+1,w
  2749  013F  00F8               	movwf	___llmod@dividend+1
  2750  0140  0820               	movf	_Tick,w
  2751  0141  00F7               	movwf	___llmod@dividend
  2752  0142  120A  118A  2285  120A  118A  	fcall	___llmod
  2753  0147  0876               	movf	?___llmod+3,w
  2754  0148  0475               	iorwf	?___llmod+2,w
  2755  0149  0474               	iorwf	?___llmod+1,w
  2756  014A  0473               	iorwf	?___llmod,w
  2757  014B  1D03               	skipz
  2758  014C  294E               	goto	u170_21
  2759  014D  294F               	goto	u170_20
  2760  014E                     u170_21:
  2761  014E  2967               	goto	i1l2502
  2762  014F                     u170_20:
  2763  014F                     i1l2500:
  2764                           
  2765                           ;Scheduler/Scheduler.c: 23:             {;Scheduler/Scheduler.c: 24:               Tasks
      +                          [i].Task();
  2766  014F  3003               	movlw	3
  2767  0150  00FF               	movwf	btemp+1
  2768  0151  087F               	movf	btemp+1,w
  2769  0152  00F0               	movwf	___bmul@multiplicand
  2770  0153  1283               	bcf	3,5	;RP0=0, select bank0
  2771  0154  1303               	bcf	3,6	;RP1=0, select bank0
  2772  0155  083F               	movf	Scheduler_Update@i,w
  2773  0156  120A  118A  2570  120A  118A  	fcall	___bmul
  2774  015B  3E03               	addlw	low (((_Tasks-__stringbase)| (0+32768)+2))
  2775  015C  0084               	movwf	4
  2776  015D  120A  118A  2585  120A  118A  	fcall	stringdir
  2777  0162  120A  118A  2026  120A  118A  	fcall	i1fptable
  2778  0167                     i1l2502:
  2779                           
  2780                           ;Scheduler/Scheduler.c: 27:        }
  2781  0167  3001               	movlw	1
  2782  0168  00FF               	movwf	btemp+1
  2783  0169  087F               	movf	btemp+1,w
  2784  016A  1283               	bcf	3,5	;RP0=0, select bank0
  2785  016B  1303               	bcf	3,6	;RP1=0, select bank0
  2786  016C  07BF               	addwf	Scheduler_Update@i,f
  2787  016D                     i1l2504:
  2788  016D  3003               	movlw	3
  2789  016E  023F               	subwf	Scheduler_Update@i,w
  2790  016F  1C03               	skipc
  2791  0170  2972               	goto	u171_21
  2792  0171  2973               	goto	u171_20
  2793  0172                     u171_21:
  2794  0172  2912               	goto	i1l2498
  2795  0173                     u171_20:
  2796  0173                     i1l49:
  2797  0173  0008               	return
  2798  0174                     __end_of_Scheduler_Update:
  2799                           
  2800                           	psect	text15
  2801  0285                     __ptext15:	
  2802 ;; *************** function ___llmod *****************
  2803 ;; Defined at:
  2804 ;;		line 5 in file "C:\Program Files (x86)\Microchip\xc8\v2.20\pic\sources\c90\common\llmod.c"
  2805 ;; Parameters:    Size  Location     Type
  2806 ;;  divisor         4    3[COMMON] unsigned long 
  2807 ;;  dividend        4    7[COMMON] unsigned long 
  2808 ;; Auto vars:     Size  Location     Type
  2809 ;;  counter         1    1[BANK0 ] unsigned char 
  2810 ;; Return value:  Size  Location     Type
  2811 ;;                  4    3[COMMON] unsigned long 
  2812 ;; Registers used:
  2813 ;;		wreg, status,2, status,0, btemp+1
  2814 ;; Tracked objects:
  2815 ;;		On entry : 0/0
  2816 ;;		On exit  : 0/0
  2817 ;;		Unchanged: 0/0
  2818 ;; Data sizes:     COMMON   BANK0   BANK1   BANK3   BANK2
  2819 ;;      Params:         8       0       0       0       0
  2820 ;;      Locals:         0       1       0       0       0
  2821 ;;      Temps:          0       1       0       0       0
  2822 ;;      Totals:         8       2       0       0       0
  2823 ;;Total ram usage:       10 bytes
  2824 ;; Hardware stack levels used:    1
  2825 ;; This function calls:
  2826 ;;		Nothing
  2827 ;; This function is called by:
  2828 ;;		_Scheduler_Update
  2829 ;; This function uses a non-reentrant model
  2830 ;;
  2831                           
  2832                           
  2833                           ;psect for function ___llmod
  2834  0285                     ___llmod:
  2835  0285                     i1l2470:	
  2836                           ;incstack = 0
  2837                           ; Regs used in ___llmod: [wreg+status,2+status,0+btemp+1]
  2838                           
  2839  0285  0876               	movf	___llmod@divisor+3,w
  2840  0286  0475               	iorwf	___llmod@divisor+2,w
  2841  0287  0474               	iorwf	___llmod@divisor+1,w
  2842  0288  0473               	iorwf	___llmod@divisor,w
  2843  0289  1903               	skipnz
  2844  028A  2A8C               	goto	u164_21
  2845  028B  2A8D               	goto	u164_20
  2846  028C                     u164_21:
  2847  028C  2AD2               	goto	i1l2488
  2848  028D                     u164_20:
  2849  028D                     i1l2472:
  2850  028D  1283               	bcf	3,5	;RP0=0, select bank0
  2851  028E  1303               	bcf	3,6	;RP1=0, select bank0
  2852  028F  01B8               	clrf	___llmod@counter
  2853  0290  0AB8               	incf	___llmod@counter,f
  2854  0291  2A9F               	goto	i1l2478
  2855  0292                     i1l2474:
  2856  0292  3001               	movlw	1
  2857  0293  00B7               	movwf	??___llmod
  2858  0294                     u165_25:
  2859  0294  1003               	clrc
  2860  0295  0DF3               	rlf	___llmod@divisor,f
  2861  0296  0DF4               	rlf	___llmod@divisor+1,f
  2862  0297  0DF5               	rlf	___llmod@divisor+2,f
  2863  0298  0DF6               	rlf	___llmod@divisor+3,f
  2864  0299  0BB7               	decfsz	??___llmod,f
  2865  029A  2A94               	goto	u165_25
  2866  029B                     i1l2476:
  2867  029B  3001               	movlw	1
  2868  029C  00FF               	movwf	btemp+1
  2869  029D  087F               	movf	btemp+1,w
  2870  029E  07B8               	addwf	___llmod@counter,f
  2871  029F                     i1l2478:
  2872  029F  1FF6               	btfss	___llmod@divisor+3,7
  2873  02A0  2AA2               	goto	u166_21
  2874  02A1  2AA3               	goto	u166_20
  2875  02A2                     u166_21:
  2876  02A2  2A92               	goto	i1l2474
  2877  02A3                     u166_20:
  2878  02A3                     i1l2480:
  2879  02A3  0876               	movf	___llmod@divisor+3,w
  2880  02A4  027A               	subwf	___llmod@dividend+3,w
  2881  02A5  1D03               	skipz
  2882  02A6  2AB1               	goto	u167_25
  2883  02A7  0875               	movf	___llmod@divisor+2,w
  2884  02A8  0279               	subwf	___llmod@dividend+2,w
  2885  02A9  1D03               	skipz
  2886  02AA  2AB1               	goto	u167_25
  2887  02AB  0874               	movf	___llmod@divisor+1,w
  2888  02AC  0278               	subwf	___llmod@dividend+1,w
  2889  02AD  1D03               	skipz
  2890  02AE  2AB1               	goto	u167_25
  2891  02AF  0873               	movf	___llmod@divisor,w
  2892  02B0  0277               	subwf	___llmod@dividend,w
  2893  02B1                     u167_25:
  2894  02B1  1C03               	skipc
  2895  02B2  2AB4               	goto	u167_21
  2896  02B3  2AB5               	goto	u167_20
  2897  02B4                     u167_21:
  2898  02B4  2AC3               	goto	i1l2484
  2899  02B5                     u167_20:
  2900  02B5                     i1l2482:
  2901  02B5  0873               	movf	___llmod@divisor,w
  2902  02B6  02F7               	subwf	___llmod@dividend,f
  2903  02B7  0874               	movf	___llmod@divisor+1,w
  2904  02B8  1C03               	skipc
  2905  02B9  0F74               	incfsz	___llmod@divisor+1,w
  2906  02BA  02F8               	subwf	___llmod@dividend+1,f
  2907  02BB  0875               	movf	___llmod@divisor+2,w
  2908  02BC  1C03               	skipc
  2909  02BD  0F75               	incfsz	___llmod@divisor+2,w
  2910  02BE  02F9               	subwf	___llmod@dividend+2,f
  2911  02BF  0876               	movf	___llmod@divisor+3,w
  2912  02C0  1C03               	skipc
  2913  02C1  0F76               	incfsz	___llmod@divisor+3,w
  2914  02C2  02FA               	subwf	___llmod@dividend+3,f
  2915  02C3                     i1l2484:
  2916  02C3  3001               	movlw	1
  2917  02C4                     u168_25:
  2918  02C4  1003               	clrc
  2919  02C5  0CF6               	rrf	___llmod@divisor+3,f
  2920  02C6  0CF5               	rrf	___llmod@divisor+2,f
  2921  02C7  0CF4               	rrf	___llmod@divisor+1,f
  2922  02C8  0CF3               	rrf	___llmod@divisor,f
  2923  02C9  3EFF               	addlw	-1
  2924  02CA  1D03               	skipz
  2925  02CB  2AC4               	goto	u168_25
  2926  02CC                     i1l2486:
  2927  02CC  3001               	movlw	1
  2928  02CD  02B8               	subwf	___llmod@counter,f
  2929  02CE  1D03               	btfss	3,2
  2930  02CF  2AD1               	goto	u169_21
  2931  02D0  2AD2               	goto	u169_20
  2932  02D1                     u169_21:
  2933  02D1  2AA3               	goto	i1l2480
  2934  02D2                     u169_20:
  2935  02D2                     i1l2488:
  2936  02D2  087A               	movf	___llmod@dividend+3,w
  2937  02D3  00F6               	movwf	?___llmod+3
  2938  02D4  0879               	movf	___llmod@dividend+2,w
  2939  02D5  00F5               	movwf	?___llmod+2
  2940  02D6  0878               	movf	___llmod@dividend+1,w
  2941  02D7  00F4               	movwf	?___llmod+1
  2942  02D8  0877               	movf	___llmod@dividend,w
  2943  02D9  00F3               	movwf	?___llmod
  2944  02DA                     i1l666:
  2945  02DA  0008               	return
  2946  02DB                     __end_of___llmod:
  2947                           
  2948                           	psect	text16
  2949  0570                     __ptext16:	
  2950 ;; *************** function ___bmul *****************
  2951 ;; Defined at:
  2952 ;;		line 4 in file "C:\Program Files (x86)\Microchip\xc8\v2.20\pic\sources\c90\common\Umul8.c"
  2953 ;; Parameters:    Size  Location     Type
  2954 ;;  multiplier      1    wreg     unsigned char 
  2955 ;;  multiplicand    1    0[COMMON] unsigned char 
  2956 ;; Auto vars:     Size  Location     Type
  2957 ;;  multiplier      1    2[COMMON] unsigned char 
  2958 ;;  product         1    1[COMMON] unsigned char 
  2959 ;; Return value:  Size  Location     Type
  2960 ;;                  1    wreg      unsigned char 
  2961 ;; Registers used:
  2962 ;;		wreg, status,2, status,0, btemp+1
  2963 ;; Tracked objects:
  2964 ;;		On entry : 0/0
  2965 ;;		On exit  : 0/0
  2966 ;;		Unchanged: 0/0
  2967 ;; Data sizes:     COMMON   BANK0   BANK1   BANK3   BANK2
  2968 ;;      Params:         1       0       0       0       0
  2969 ;;      Locals:         2       0       0       0       0
  2970 ;;      Temps:          0       0       0       0       0
  2971 ;;      Totals:         3       0       0       0       0
  2972 ;;Total ram usage:        3 bytes
  2973 ;; Hardware stack levels used:    1
  2974 ;; This function calls:
  2975 ;;		Nothing
  2976 ;; This function is called by:
  2977 ;;		_Scheduler_Update
  2978 ;; This function uses a non-reentrant model
  2979 ;;
  2980                           
  2981                           
  2982                           ;psect for function ___bmul
  2983  0570                     ___bmul:
  2984                           
  2985                           ;incstack = 0
  2986                           ; Regs used in ___bmul: [wreg+status,2+status,0+btemp+1]
  2987                           ;___bmul@multiplier stored from wreg
  2988  0570  00F2               	movwf	___bmul@multiplier
  2989  0571                     i1l2272:
  2990  0571  01F1               	clrf	___bmul@product
  2991  0572                     i1l2274:
  2992  0572  1C72               	btfss	___bmul@multiplier,0
  2993  0573  2D75               	goto	u151_21
  2994  0574  2D76               	goto	u151_20
  2995  0575                     u151_21:
  2996  0575  2D7A               	goto	i1l2278
  2997  0576                     u151_20:
  2998  0576                     i1l2276:
  2999  0576  0870               	movf	___bmul@multiplicand,w
  3000  0577  00FF               	movwf	btemp+1
  3001  0578  087F               	movf	btemp+1,w
  3002  0579  07F1               	addwf	___bmul@product,f
  3003  057A                     i1l2278:
  3004  057A  1003               	clrc
  3005  057B  0DF0               	rlf	___bmul@multiplicand,f
  3006  057C                     i1l2280:
  3007  057C  1003               	clrc
  3008  057D  0CF2               	rrf	___bmul@multiplier,f
  3009  057E                     i1l2282:
  3010  057E  0872               	movf	___bmul@multiplier,w
  3011  057F  1D03               	btfss	3,2
  3012  0580  2D82               	goto	u152_21
  3013  0581  2D83               	goto	u152_20
  3014  0582                     u152_21:
  3015  0582  2D72               	goto	i1l2274
  3016  0583                     u152_20:
  3017  0583                     i1l2284:
  3018  0583  0871               	movf	___bmul@product,w
  3019  0584                     i1l470:
  3020  0584  0008               	return
  3021  0585                     __end_of___bmul:
  3022                           
  3023                           	psect	text17
  3024  05CC                     __ptext17:	
  3025 ;; *************** function _Scheduler_Task2 *****************
  3026 ;; Defined at:
  3027 ;;		line 24 in file "Scheduler/Task.c"
  3028 ;; Parameters:    Size  Location     Type
  3029 ;;		None
  3030 ;; Auto vars:     Size  Location     Type
  3031 ;;		None
  3032 ;; Return value:  Size  Location     Type
  3033 ;;                  1    wreg      void 
  3034 ;; Registers used:
  3035 ;;		wreg, fsr0l, fsr0h, status,2, status,0, btemp+1, pclath, cstack
  3036 ;; Tracked objects:
  3037 ;;		On entry : 0/0
  3038 ;;		On exit  : 0/0
  3039 ;;		Unchanged: 0/0
  3040 ;; Data sizes:     COMMON   BANK0   BANK1   BANK3   BANK2
  3041 ;;      Params:         0       0       0       0       0
  3042 ;;      Locals:         0       0       0       0       0
  3043 ;;      Temps:          0       0       0       0       0
  3044 ;;      Totals:         0       0       0       0       0
  3045 ;;Total ram usage:        0 bytes
  3046 ;; Hardware stack levels used:    1
  3047 ;; Hardware stack levels required when called:    2
  3048 ;; This function calls:
  3049 ;;		_Buttons_Update
  3050 ;;		_ModeManager_Update
  3051 ;; This function is called by:
  3052 ;;		_Scheduler_Update
  3053 ;; This function uses a non-reentrant model
  3054 ;;
  3055                           
  3056                           
  3057                           ;psect for function _Scheduler_Task2
  3058  05CC                     _Scheduler_Task2:
  3059  05CC                     i1l2266:	
  3060                           ;incstack = 0
  3061                           ; Regs used in _Scheduler_Task2: [wreg-fsr0h+status,2+status,0+btemp+1+pclath+cstack]
  3062                           
  3063                           
  3064                           ;Scheduler/Task.c: 27:   Buttons_Update();
  3065  05CC  120A  118A  22DB  120A  118A  	fcall	_Buttons_Update
  3066                           
  3067                           ;Scheduler/Task.c: 28:   ModeManager_Update();
  3068  05D1  120A  118A  24B5  120A  118A  	fcall	_ModeManager_Update
  3069  05D6                     i1l273:
  3070  05D6  0008               	return
  3071  05D7                     __end_of_Scheduler_Task2:
  3072                           
  3073                           	psect	text18
  3074  05B4                     __ptext18:	
  3075 ;; *************** function _Scheduler_Task1 *****************
  3076 ;; Defined at:
  3077 ;;		line 17 in file "Scheduler/Task.c"
  3078 ;; Parameters:    Size  Location     Type
  3079 ;;		None
  3080 ;; Auto vars:     Size  Location     Type
  3081 ;;		None
  3082 ;; Return value:  Size  Location     Type
  3083 ;;                  1    wreg      void 
  3084 ;; Registers used:
  3085 ;;		wreg, fsr0l, fsr0h, status,2, status,0, btemp+1, pclath, cstack
  3086 ;; Tracked objects:
  3087 ;;		On entry : 0/0
  3088 ;;		On exit  : 0/0
  3089 ;;		Unchanged: 0/0
  3090 ;; Data sizes:     COMMON   BANK0   BANK1   BANK3   BANK2
  3091 ;;      Params:         0       0       0       0       0
  3092 ;;      Locals:         0       0       0       0       0
  3093 ;;      Temps:          0       0       0       0       0
  3094 ;;      Totals:         0       0       0       0       0
  3095 ;;Total ram usage:        0 bytes
  3096 ;; Hardware stack levels used:    1
  3097 ;; Hardware stack levels required when called:    3
  3098 ;; This function calls:
  3099 ;;		_Display_Update
  3100 ;; This function is called by:
  3101 ;;		_Scheduler_Update
  3102 ;; This function uses a non-reentrant model
  3103 ;;
  3104                           
  3105                           
  3106                           ;psect for function _Scheduler_Task1
  3107  05B4                     _Scheduler_Task1:
  3108  05B4                     i1l2262:	
  3109                           ;incstack = 0
  3110 ;; hardware stack exceeded
  3111                           ; Regs used in _Scheduler_Task1: [wreg-fsr0h+status,2+status,0+btemp+1+pclath+cstack]
  3112                           
  3113                           
  3114                           ;Scheduler/Task.c: 20:   Display_Update();
  3115  05B4  120A  118A  246A  120A  118A  	fcall	_Display_Update
  3116  05B9                     i1l2264:
  3117                           
  3118                           ;Scheduler/Task.c: 21:   (PORTB^=(1<<4));
  3119  05B9  3010               	movlw	16
  3120  05BA  00FF               	movwf	btemp+1
  3121  05BB  087F               	movf	btemp+1,w
  3122  05BC  1283               	bcf	3,5	;RP0=0, select bank0
  3123  05BD  1303               	bcf	3,6	;RP1=0, select bank0
  3124  05BE  0686               	xorwf	6,f	;volatile
  3125  05BF                     i1l270:
  3126  05BF  0008               	return
  3127  05C0                     __end_of_Scheduler_Task1:
  3128                           
  3129                           	psect	text19
  3130  05C0                     __ptext19:	
  3131 ;; *************** function _Scheduler_Task3 *****************
  3132 ;; Defined at:
  3133 ;;		line 31 in file "Scheduler/Task.c"
  3134 ;; Parameters:    Size  Location     Type
  3135 ;;		None
  3136 ;; Auto vars:     Size  Location     Type
  3137 ;;		None
  3138 ;; Return value:  Size  Location     Type
  3139 ;;                  1    wreg      void 
  3140 ;; Registers used:
  3141 ;;		wreg, fsr0l, fsr0h, status,2, status,0, btemp+1, pclath, cstack
  3142 ;; Tracked objects:
  3143 ;;		On entry : 0/0
  3144 ;;		On exit  : 0/0
  3145 ;;		Unchanged: 0/0
  3146 ;; Data sizes:     COMMON   BANK0   BANK1   BANK3   BANK2
  3147 ;;      Params:         0       0       0       0       0
  3148 ;;      Locals:         0       0       0       0       0
  3149 ;;      Temps:          0       0       0       0       0
  3150 ;;      Totals:         0       0       0       0       0
  3151 ;;Total ram usage:        0 bytes
  3152 ;; Hardware stack levels used:    1
  3153 ;; Hardware stack levels required when called:    2
  3154 ;; This function calls:
  3155 ;;		_Clock_Update
  3156 ;; This function is called by:
  3157 ;;		_Scheduler_Update
  3158 ;; This function uses a non-reentrant model
  3159 ;;
  3160                           
  3161                           
  3162                           ;psect for function _Scheduler_Task3
  3163  05C0                     _Scheduler_Task3:
  3164  05C0                     i1l2268:	
  3165                           ;incstack = 0
  3166                           ; Regs used in _Scheduler_Task3: [wreg-fsr0h+status,2+status,0+btemp+1+pclath+cstack]
  3167                           
  3168                           
  3169                           ;Scheduler/Task.c: 33:   (PORTB^=(1<<3));
  3170  05C0  3008               	movlw	8
  3171  05C1  00FF               	movwf	btemp+1
  3172  05C2  087F               	movf	btemp+1,w
  3173  05C3  1283               	bcf	3,5	;RP0=0, select bank0
  3174  05C4  1303               	bcf	3,6	;RP1=0, select bank0
  3175  05C5  0686               	xorwf	6,f	;volatile
  3176  05C6                     i1l2270:
  3177                           
  3178                           ;Scheduler/Task.c: 34:   Clock_Update();
  3179  05C6  120A  118A  2443  120A  118A  	fcall	_Clock_Update
  3180  05CB                     i1l276:
  3181  05CB  0008               	return
  3182  05CC                     __end_of_Scheduler_Task3:
  3183                           
  3184                           	psect	text20
  3185  0443                     __ptext20:	
  3186 ;; *************** function _Clock_Update *****************
  3187 ;; Defined at:
  3188 ;;		line 21 in file "Clock/Clock.c"
  3189 ;; Parameters:    Size  Location     Type
  3190 ;;		None
  3191 ;; Auto vars:     Size  Location     Type
  3192 ;;		None
  3193 ;; Return value:  Size  Location     Type
  3194 ;;                  1    wreg      void 
  3195 ;; Registers used:
  3196 ;;		wreg, fsr0l, fsr0h, status,2, status,0, btemp+1, pclath, cstack
  3197 ;; Tracked objects:
  3198 ;;		On entry : 0/0
  3199 ;;		On exit  : 0/0
  3200 ;;		Unchanged: 0/0
  3201 ;; Data sizes:     COMMON   BANK0   BANK1   BANK3   BANK2
  3202 ;;      Params:         0       0       0       0       0
  3203 ;;      Locals:         0       0       0       0       0
  3204 ;;      Temps:          2       0       0       0       0
  3205 ;;      Totals:         2       0       0       0       0
  3206 ;;Total ram usage:        2 bytes
  3207 ;; Hardware stack levels used:    1
  3208 ;; Hardware stack levels required when called:    1
  3209 ;; This function calls:
  3210 ;;		_Clock_Hour_Setting
  3211 ;;		_Clock_Minutes_Setting
  3212 ;;		_Clock_Normal
  3213 ;; This function is called by:
  3214 ;;		_Scheduler_Task3
  3215 ;; This function uses a non-reentrant model
  3216 ;;
  3217                           
  3218                           
  3219                           ;psect for function _Clock_Update
  3220  0443                     _Clock_Update:
  3221  0443                     i1l2246:	
  3222                           ;incstack = 0
  3223                           ; Regs used in _Clock_Update: [wreg-fsr0h+status,2+status,0+btemp+1+pclath+cstack]
  3224                           
  3225                           
  3226                           ;Clock/Clock.c: 23:     switch(MODE)
  3227  0443  2C56               	goto	i1l2256
  3228  0444                     i1l2248:
  3229                           
  3230                           ;Clock/Clock.c: 26:                               Clock_Normal();
  3231  0444  120A  118A  2491  120A  118A  	fcall	_Clock_Normal
  3232                           
  3233                           ;Clock/Clock.c: 27:                               break;
  3234  0449  2C69               	goto	i1l299
  3235  044A                     i1l2250:
  3236                           
  3237                           ;Clock/Clock.c: 30:                               Clock_Hour_Setting();
  3238  044A  120A  118A  23E9  120A  118A  	fcall	_Clock_Hour_Setting
  3239                           
  3240                           ;Clock/Clock.c: 31:                               break;
  3241  044F  2C69               	goto	i1l299
  3242  0450                     i1l2252:
  3243                           
  3244                           ;Clock/Clock.c: 34:                               Clock_Minutes_Setting();
  3245  0450  120A  118A  2383  120A  118A  	fcall	_Clock_Minutes_Setting
  3246                           
  3247                           ;Clock/Clock.c: 35:                               break;
  3248  0455  2C69               	goto	i1l299
  3249  0456                     i1l2256:
  3250  0456  087D               	movf	_MODE,w
  3251  0457  00F0               	movwf	??_Clock_Update
  3252  0458  01F1               	clrf	??_Clock_Update+1
  3253                           
  3254                           ; Switch on 2 bytes has been partitioned into a top level switch of size 1, and 1 sub-sw
      +                          itches
  3255                           ; Switch size 1, requested type "simple"
  3256                           ; Number of cases is 1, Range of values is 0 to 0
  3257                           ; switch strategies available:
  3258                           ; Name         Instructions Cycles
  3259                           ; simple_byte            4     3 (average)
  3260                           ; direct_byte           11     8 (fixed)
  3261                           ; jumptable            260     6 (fixed)
  3262                           ;	Chosen strategy is simple_byte
  3263  0459  0871               	movf	??_Clock_Update+1,w
  3264  045A  3A00               	xorlw	0	; case 0
  3265  045B  1903               	skipnz
  3266  045C  2C5E               	goto	i1l2622
  3267  045D  2C69               	goto	i1l299
  3268  045E                     i1l2622:
  3269                           
  3270                           ; Switch size 1, requested type "simple"
  3271                           ; Number of cases is 3, Range of values is 0 to 2
  3272                           ; switch strategies available:
  3273                           ; Name         Instructions Cycles
  3274                           ; simple_byte           10     6 (average)
  3275                           ; direct_byte           17     8 (fixed)
  3276                           ; jumptable            260     6 (fixed)
  3277                           ;	Chosen strategy is simple_byte
  3278  045E  0870               	movf	??_Clock_Update,w
  3279  045F  3A00               	xorlw	0	; case 0
  3280  0460  1903               	skipnz
  3281  0461  2C44               	goto	i1l2248
  3282  0462  3A01               	xorlw	1	; case 1
  3283  0463  1903               	skipnz
  3284  0464  2C4A               	goto	i1l2250
  3285  0465  3A03               	xorlw	3	; case 2
  3286  0466  1903               	skipnz
  3287  0467  2C50               	goto	i1l2252
  3288  0468  2C69               	goto	i1l299
  3289  0469                     i1l299:
  3290  0469  0008               	return
  3291  046A                     __end_of_Clock_Update:
  3292                           
  3293                           	psect	text21
  3294  0491                     __ptext21:	
  3295 ;; *************** function _Clock_Normal *****************
  3296 ;; Defined at:
  3297 ;;		line 41 in file "Clock/Clock.c"
  3298 ;; Parameters:    Size  Location     Type
  3299 ;;		None
  3300 ;; Auto vars:     Size  Location     Type
  3301 ;;		None
  3302 ;; Return value:  Size  Location     Type
  3303 ;;                  1    wreg      void 
  3304 ;; Registers used:
  3305 ;;		wreg, status,2, status,0, btemp+1
  3306 ;; Tracked objects:
  3307 ;;		On entry : 0/0
  3308 ;;		On exit  : 0/0
  3309 ;;		Unchanged: 0/0
  3310 ;; Data sizes:     COMMON   BANK0   BANK1   BANK3   BANK2
  3311 ;;      Params:         0       0       0       0       0
  3312 ;;      Locals:         0       0       0       0       0
  3313 ;;      Temps:          0       0       0       0       0
  3314 ;;      Totals:         0       0       0       0       0
  3315 ;;Total ram usage:        0 bytes
  3316 ;; Hardware stack levels used:    1
  3317 ;; This function calls:
  3318 ;;		Nothing
  3319 ;; This function is called by:
  3320 ;;		_Clock_Update
  3321 ;; This function uses a non-reentrant model
  3322 ;;
  3323                           
  3324                           
  3325                           ;psect for function _Clock_Normal
  3326  0491                     _Clock_Normal:
  3327  0491                     i1l2098:	
  3328                           ;incstack = 0
  3329                           ; Regs used in _Clock_Normal: [wreg+status,2+status,0+btemp+1]
  3330                           
  3331                           
  3332                           ;Clock/Clock.c: 44:     Clock.Second++;
  3333  0491  3001               	movlw	1
  3334  0492  00FF               	movwf	btemp+1
  3335  0493  087F               	movf	btemp+1,w
  3336  0494  1283               	bcf	3,5	;RP0=0, select bank0
  3337  0495  1303               	bcf	3,6	;RP1=0, select bank0
  3338  0496  07A4               	addwf	_Clock,f
  3339  0497                     i1l2100:
  3340                           
  3341                           ;Clock/Clock.c: 46:     if(Clock.Second==60)
  3342  0497  303C               	movlw	60
  3343  0498  0624               	xorwf	_Clock,w
  3344  0499  1D03               	btfss	3,2
  3345  049A  2C9C               	goto	u120_21
  3346  049B  2C9D               	goto	u120_20
  3347  049C                     u120_21:
  3348  049C  2CA2               	goto	i1l2106
  3349  049D                     u120_20:
  3350  049D                     i1l2102:
  3351                           
  3352                           ;Clock/Clock.c: 47:     {;Clock/Clock.c: 48:       Clock.Minutes++;
  3353  049D  3001               	movlw	1
  3354  049E  00FF               	movwf	btemp+1
  3355  049F  087F               	movf	btemp+1,w
  3356  04A0  07A5               	addwf	_Clock+1,f
  3357  04A1                     i1l2104:
  3358                           
  3359                           ;Clock/Clock.c: 49:       Clock.Second=0;
  3360  04A1  01A4               	clrf	_Clock
  3361  04A2                     i1l2106:
  3362                           
  3363                           ;Clock/Clock.c: 52:     if(Clock.Minutes==60)
  3364  04A2  303C               	movlw	60
  3365  04A3  0625               	xorwf	_Clock+1,w
  3366  04A4  1D03               	btfss	3,2
  3367  04A5  2CA7               	goto	u121_21
  3368  04A6  2CA8               	goto	u121_20
  3369  04A7                     u121_21:
  3370  04A7  2CAD               	goto	i1l2112
  3371  04A8                     u121_20:
  3372  04A8                     i1l2108:
  3373                           
  3374                           ;Clock/Clock.c: 53:     {;Clock/Clock.c: 54:       Clock.Hours++;
  3375  04A8  3001               	movlw	1
  3376  04A9  00FF               	movwf	btemp+1
  3377  04AA  087F               	movf	btemp+1,w
  3378  04AB  07A6               	addwf	_Clock+2,f
  3379  04AC                     i1l2110:
  3380                           
  3381                           ;Clock/Clock.c: 55:       Clock.Minutes=0;
  3382  04AC  01A5               	clrf	_Clock+1
  3383  04AD                     i1l2112:
  3384                           
  3385                           ;Clock/Clock.c: 57:     if(Clock.Hours==24)
  3386  04AD  3018               	movlw	24
  3387  04AE  0626               	xorwf	_Clock+2,w
  3388  04AF  1D03               	btfss	3,2
  3389  04B0  2CB2               	goto	u122_21
  3390  04B1  2CB3               	goto	u122_20
  3391  04B2                     u122_21:
  3392  04B2  2CB4               	goto	i1l305
  3393  04B3                     u122_20:
  3394  04B3                     i1l2114:
  3395                           
  3396                           ;Clock/Clock.c: 58:     {;Clock/Clock.c: 59:       Clock.Hours=0;
  3397  04B3  01A6               	clrf	_Clock+2
  3398  04B4                     i1l305:
  3399  04B4  0008               	return
  3400  04B5                     __end_of_Clock_Normal:
  3401                           
  3402                           	psect	text22
  3403  0383                     __ptext22:	
  3404 ;; *************** function _Clock_Minutes_Setting *****************
  3405 ;; Defined at:
  3406 ;;		line 95 in file "Clock/Clock.c"
  3407 ;; Parameters:    Size  Location     Type
  3408 ;;		None
  3409 ;; Auto vars:     Size  Location     Type
  3410 ;;		None
  3411 ;; Return value:  Size  Location     Type
  3412 ;;                  1    wreg      void 
  3413 ;; Registers used:
  3414 ;;		wreg, status,2, status,0, btemp+1
  3415 ;; Tracked objects:
  3416 ;;		On entry : 0/0
  3417 ;;		On exit  : 0/0
  3418 ;;		Unchanged: 0/0
  3419 ;; Data sizes:     COMMON   BANK0   BANK1   BANK3   BANK2
  3420 ;;      Params:         0       0       0       0       0
  3421 ;;      Locals:         0       0       0       0       0
  3422 ;;      Temps:          0       0       0       0       0
  3423 ;;      Totals:         0       0       0       0       0
  3424 ;;Total ram usage:        0 bytes
  3425 ;; Hardware stack levels used:    1
  3426 ;; This function calls:
  3427 ;;		Nothing
  3428 ;; This function is called by:
  3429 ;;		_Clock_Update
  3430 ;; This function uses a non-reentrant model
  3431 ;;
  3432                           
  3433                           
  3434                           ;psect for function _Clock_Minutes_Setting
  3435  0383                     _Clock_Minutes_Setting:
  3436  0383                     i1l2134:	
  3437                           ;incstack = 0
  3438                           ; Regs used in _Clock_Minutes_Setting: [wreg+status,2+status,0+btemp+1]
  3439                           
  3440                           
  3441                           ;Clock/Clock.c: 97:   if(ButtonsFlag.UpButton_Flag&&!ButtonsFlag.DownButton_Flag)
  3442  0383  1C7C               	btfss	_ButtonsFlag,0
  3443  0384  2B86               	goto	u129_21
  3444  0385  2B87               	goto	u129_20
  3445  0386                     u129_21:
  3446  0386  2B9E               	goto	i1l318
  3447  0387                     u129_20:
  3448  0387                     i1l2136:
  3449  0387  18FC               	btfsc	_ButtonsFlag,1
  3450  0388  2B8A               	goto	u130_21
  3451  0389  2B8B               	goto	u130_20
  3452  038A                     u130_21:
  3453  038A  2B9E               	goto	i1l318
  3454  038B                     u130_20:
  3455  038B                     i1l2138:
  3456                           
  3457                           ;Clock/Clock.c: 98:     {;Clock/Clock.c: 99:         if(Clock.Minutes==59)
  3458  038B  303B               	movlw	59
  3459  038C  1283               	bcf	3,5	;RP0=0, select bank0
  3460  038D  1303               	bcf	3,6	;RP1=0, select bank0
  3461  038E  0625               	xorwf	_Clock+1,w
  3462  038F  1D03               	btfss	3,2
  3463  0390  2B92               	goto	u131_21
  3464  0391  2B93               	goto	u131_20
  3465  0392                     u131_21:
  3466  0392  2B99               	goto	i1l2144
  3467  0393                     u131_20:
  3468  0393                     i1l2140:
  3469                           
  3470                           ;Clock/Clock.c: 100:         {;Clock/Clock.c: 101:             Clock.Hours++;
  3471  0393  3001               	movlw	1
  3472  0394  00FF               	movwf	btemp+1
  3473  0395  087F               	movf	btemp+1,w
  3474  0396  07A6               	addwf	_Clock+2,f
  3475  0397                     i1l2142:
  3476                           
  3477                           ;Clock/Clock.c: 102:             Clock.Minutes=0;
  3478  0397  01A5               	clrf	_Clock+1
  3479                           
  3480                           ;Clock/Clock.c: 103:         }
  3481  0398  2BB6               	goto	i1l325
  3482  0399                     i1l2144:
  3483                           
  3484                           ;Clock/Clock.c: 105:         {;Clock/Clock.c: 106:             Clock.Minutes++;
  3485  0399  3001               	movlw	1
  3486  039A  00FF               	movwf	btemp+1
  3487  039B  087F               	movf	btemp+1,w
  3488  039C  07A5               	addwf	_Clock+1,f
  3489  039D  2BB6               	goto	i1l325
  3490  039E                     i1l318:	
  3491                           ;Clock/Clock.c: 110:     else if(ButtonsFlag.DownButton_Flag&&ButtonsFlag.UpButton_Flag)
  3492                           
  3493  039E  1CFC               	btfss	_ButtonsFlag,1
  3494  039F  2BA1               	goto	u132_21
  3495  03A0  2BA2               	goto	u132_20
  3496  03A1                     u132_21:
  3497  03A1  2BB6               	goto	i1l325
  3498  03A2                     u132_20:
  3499  03A2                     i1l2146:
  3500  03A2  1C7C               	btfss	_ButtonsFlag,0
  3501  03A3  2BA5               	goto	u133_21
  3502  03A4  2BA6               	goto	u133_20
  3503  03A5                     u133_21:
  3504  03A5  2BB6               	goto	i1l325
  3505  03A6                     u133_20:
  3506  03A6                     i1l2148:
  3507                           
  3508                           ;Clock/Clock.c: 111:     {;Clock/Clock.c: 112:         if(Clock.Minutes==0)
  3509  03A6  1283               	bcf	3,5	;RP0=0, select bank0
  3510  03A7  1303               	bcf	3,6	;RP1=0, select bank0
  3511  03A8  0825               	movf	_Clock+1,w
  3512  03A9  1D03               	btfss	3,2
  3513  03AA  2BAC               	goto	u134_21
  3514  03AB  2BAD               	goto	u134_20
  3515  03AC                     u134_21:
  3516  03AC  2BB4               	goto	i1l2154
  3517  03AD                     u134_20:
  3518  03AD                     i1l2150:
  3519                           
  3520                           ;Clock/Clock.c: 113:         {;Clock/Clock.c: 114:             Clock.Hours--;
  3521  03AD  3001               	movlw	1
  3522  03AE  02A6               	subwf	_Clock+2,f
  3523  03AF                     i1l2152:
  3524                           
  3525                           ;Clock/Clock.c: 115:             Clock.Minutes=59;
  3526  03AF  303B               	movlw	59
  3527  03B0  00FF               	movwf	btemp+1
  3528  03B1  087F               	movf	btemp+1,w
  3529  03B2  00A5               	movwf	_Clock+1
  3530                           
  3531                           ;Clock/Clock.c: 116:         }
  3532  03B3  2BB6               	goto	i1l325
  3533  03B4                     i1l2154:
  3534                           
  3535                           ;Clock/Clock.c: 118:         {;Clock/Clock.c: 119:             Clock.Minutes--;
  3536  03B4  3001               	movlw	1
  3537  03B5  02A5               	subwf	_Clock+1,f
  3538  03B6                     i1l325:
  3539  03B6  0008               	return
  3540  03B7                     __end_of_Clock_Minutes_Setting:
  3541                           
  3542                           	psect	text23
  3543  03E9                     __ptext23:	
  3544 ;; *************** function _Clock_Hour_Setting *****************
  3545 ;; Defined at:
  3546 ;;		line 65 in file "Clock/Clock.c"
  3547 ;; Parameters:    Size  Location     Type
  3548 ;;		None
  3549 ;; Auto vars:     Size  Location     Type
  3550 ;;		None
  3551 ;; Return value:  Size  Location     Type
  3552 ;;                  1    wreg      void 
  3553 ;; Registers used:
  3554 ;;		wreg, status,2, status,0, btemp+1
  3555 ;; Tracked objects:
  3556 ;;		On entry : 0/0
  3557 ;;		On exit  : 0/0
  3558 ;;		Unchanged: 0/0
  3559 ;; Data sizes:     COMMON   BANK0   BANK1   BANK3   BANK2
  3560 ;;      Params:         0       0       0       0       0
  3561 ;;      Locals:         0       0       0       0       0
  3562 ;;      Temps:          0       0       0       0       0
  3563 ;;      Totals:         0       0       0       0       0
  3564 ;;Total ram usage:        0 bytes
  3565 ;; Hardware stack levels used:    1
  3566 ;; This function calls:
  3567 ;;		Nothing
  3568 ;; This function is called by:
  3569 ;;		_Clock_Update
  3570 ;; This function uses a non-reentrant model
  3571 ;;
  3572                           
  3573                           
  3574                           ;psect for function _Clock_Hour_Setting
  3575  03E9                     _Clock_Hour_Setting:
  3576  03E9                     i1l2116:	
  3577                           ;incstack = 0
  3578                           ; Regs used in _Clock_Hour_Setting: [wreg+status,2+status,0+btemp+1]
  3579                           
  3580                           
  3581                           ;Clock/Clock.c: 67:     if(ButtonsFlag.UpButton_Flag&&!ButtonsFlag.DownButton_Flag)
  3582  03E9  1C7C               	btfss	_ButtonsFlag,0
  3583  03EA  2BEC               	goto	u123_21
  3584  03EB  2BED               	goto	u123_20
  3585  03EC                     u123_21:
  3586  03EC  2C00               	goto	i1l308
  3587  03ED                     u123_20:
  3588  03ED                     i1l2118:
  3589  03ED  18FC               	btfsc	_ButtonsFlag,1
  3590  03EE  2BF0               	goto	u124_21
  3591  03EF  2BF1               	goto	u124_20
  3592  03F0                     u124_21:
  3593  03F0  2C00               	goto	i1l308
  3594  03F1                     u124_20:
  3595  03F1                     i1l2120:
  3596                           
  3597                           ;Clock/Clock.c: 68:     {;Clock/Clock.c: 69:         if(Clock.Hours==23)
  3598  03F1  3017               	movlw	23
  3599  03F2  1283               	bcf	3,5	;RP0=0, select bank0
  3600  03F3  1303               	bcf	3,6	;RP1=0, select bank0
  3601  03F4  0626               	xorwf	_Clock+2,w
  3602  03F5  1D03               	btfss	3,2
  3603  03F6  2BF8               	goto	u125_21
  3604  03F7  2BF9               	goto	u125_20
  3605  03F8                     u125_21:
  3606  03F8  2BFB               	goto	i1l2124
  3607  03F9                     u125_20:
  3608  03F9                     i1l2122:
  3609                           
  3610                           ;Clock/Clock.c: 70:         {;Clock/Clock.c: 71:             Clock.Hours=0;
  3611  03F9  01A6               	clrf	_Clock+2
  3612                           
  3613                           ;Clock/Clock.c: 72:         }
  3614  03FA  2C16               	goto	i1l315
  3615  03FB                     i1l2124:
  3616                           
  3617                           ;Clock/Clock.c: 74:         {;Clock/Clock.c: 75:             Clock.Hours++;
  3618  03FB  3001               	movlw	1
  3619  03FC  00FF               	movwf	btemp+1
  3620  03FD  087F               	movf	btemp+1,w
  3621  03FE  07A6               	addwf	_Clock+2,f
  3622  03FF  2C16               	goto	i1l315
  3623  0400                     i1l308:	
  3624                           ;Clock/Clock.c: 79:     else if(ButtonsFlag.DownButton_Flag&&ButtonsFlag.UpButton_Flag)
  3625                           
  3626  0400  1CFC               	btfss	_ButtonsFlag,1
  3627  0401  2C03               	goto	u126_21
  3628  0402  2C04               	goto	u126_20
  3629  0403                     u126_21:
  3630  0403  2C16               	goto	i1l315
  3631  0404                     u126_20:
  3632  0404                     i1l2126:
  3633  0404  1C7C               	btfss	_ButtonsFlag,0
  3634  0405  2C07               	goto	u127_21
  3635  0406  2C08               	goto	u127_20
  3636  0407                     u127_21:
  3637  0407  2C16               	goto	i1l315
  3638  0408                     u127_20:
  3639  0408                     i1l2128:
  3640                           
  3641                           ;Clock/Clock.c: 80:     {;Clock/Clock.c: 81:          if(Clock.Hours==0)
  3642  0408  1283               	bcf	3,5	;RP0=0, select bank0
  3643  0409  1303               	bcf	3,6	;RP1=0, select bank0
  3644  040A  0826               	movf	_Clock+2,w
  3645  040B  1D03               	btfss	3,2
  3646  040C  2C0E               	goto	u128_21
  3647  040D  2C0F               	goto	u128_20
  3648  040E                     u128_21:
  3649  040E  2C14               	goto	i1l2132
  3650  040F                     u128_20:
  3651  040F                     i1l2130:
  3652                           
  3653                           ;Clock/Clock.c: 82:         {;Clock/Clock.c: 83:             Clock.Hours=23;
  3654  040F  3017               	movlw	23
  3655  0410  00FF               	movwf	btemp+1
  3656  0411  087F               	movf	btemp+1,w
  3657  0412  00A6               	movwf	_Clock+2
  3658                           
  3659                           ;Clock/Clock.c: 84:         }
  3660  0413  2C16               	goto	i1l315
  3661  0414                     i1l2132:
  3662                           
  3663                           ;Clock/Clock.c: 86:         {;Clock/Clock.c: 87:          Clock.Hours--;
  3664  0414  3001               	movlw	1
  3665  0415  02A6               	subwf	_Clock+2,f
  3666  0416                     i1l315:
  3667  0416  0008               	return
  3668  0417                     __end_of_Clock_Hour_Setting:
  3669                           
  3670                           	psect	text24
  3671  04B5                     __ptext24:	
  3672 ;; *************** function _ModeManager_Update *****************
  3673 ;; Defined at:
  3674 ;;		line 17 in file "ModeManger/ModeManager.c"
  3675 ;; Parameters:    Size  Location     Type
  3676 ;;		None
  3677 ;; Auto vars:     Size  Location     Type
  3678 ;;		None
  3679 ;; Return value:  Size  Location     Type
  3680 ;;                  1    wreg      void 
  3681 ;; Registers used:
  3682 ;;		wreg, fsr0l, fsr0h, status,2, status,0, btemp+1
  3683 ;; Tracked objects:
  3684 ;;		On entry : 0/0
  3685 ;;		On exit  : 0/0
  3686 ;;		Unchanged: 0/0
  3687 ;; Data sizes:     COMMON   BANK0   BANK1   BANK3   BANK2
  3688 ;;      Params:         0       0       0       0       0
  3689 ;;      Locals:         0       0       0       0       0
  3690 ;;      Temps:          2       0       0       0       0
  3691 ;;      Totals:         2       0       0       0       0
  3692 ;;Total ram usage:        2 bytes
  3693 ;; Hardware stack levels used:    1
  3694 ;; This function calls:
  3695 ;;		Nothing
  3696 ;; This function is called by:
  3697 ;;		_Scheduler_Task2
  3698 ;; This function uses a non-reentrant model
  3699 ;;
  3700                           
  3701                           
  3702                           ;psect for function _ModeManager_Update
  3703  04B5                     _ModeManager_Update:
  3704  04B5                     i1l2230:	
  3705                           ;incstack = 0
  3706                           ; Regs used in _ModeManager_Update: [wreg-fsr0h+status,2+status,0+btemp+1]
  3707                           
  3708                           
  3709                           ;ModeManger/ModeManager.c: 19:     if(ButtonsFlag.SettingButton_Flag)
  3710  04B5  1D7C               	btfss	_ButtonsFlag,2
  3711  04B6  2CB8               	goto	u150_21
  3712  04B7  2CB9               	goto	u150_20
  3713  04B8                     u150_21:
  3714  04B8  2CD8               	goto	i1l221
  3715  04B9                     u150_20:
  3716  04B9  2CC4               	goto	i1l2240
  3717  04BA                     i1l217:	
  3718                           ;ModeManger/ModeManager.c: 22:         {;ModeManger/ModeManager.c: 23:             case 
      +                          Normal_Mode:
  3719                           
  3720                           
  3721                           ;ModeManger/ModeManager.c: 24:                          MODE=Hour_Mode;
  3722  04BA  01FD               	clrf	_MODE
  3723  04BB  0AFD               	incf	_MODE,f
  3724                           
  3725                           ;ModeManger/ModeManager.c: 25:                          break;
  3726  04BC  2CD7               	goto	i1l218
  3727  04BD                     i1l2234:
  3728                           
  3729                           ;ModeManger/ModeManager.c: 28:                          MODE=Minutes_Mode;
  3730  04BD  3002               	movlw	2
  3731  04BE  00FF               	movwf	btemp+1
  3732  04BF  087F               	movf	btemp+1,w
  3733  04C0  00FD               	movwf	_MODE
  3734                           
  3735                           ;ModeManger/ModeManager.c: 29:                          break;
  3736  04C1  2CD7               	goto	i1l218
  3737  04C2                     i1l2236:
  3738                           
  3739                           ;ModeManger/ModeManager.c: 32:                          MODE=Normal_Mode;
  3740  04C2  01FD               	clrf	_MODE
  3741                           
  3742                           ;ModeManger/ModeManager.c: 33:                          break;
  3743  04C3  2CD7               	goto	i1l218
  3744  04C4                     i1l2240:
  3745  04C4  087D               	movf	_MODE,w
  3746  04C5  00F0               	movwf	??_ModeManager_Update
  3747  04C6  01F1               	clrf	??_ModeManager_Update+1
  3748                           
  3749                           ; Switch on 2 bytes has been partitioned into a top level switch of size 1, and 1 sub-sw
      +                          itches
  3750                           ; Switch size 1, requested type "simple"
  3751                           ; Number of cases is 1, Range of values is 0 to 0
  3752                           ; switch strategies available:
  3753                           ; Name         Instructions Cycles
  3754                           ; simple_byte            4     3 (average)
  3755                           ; direct_byte           11     8 (fixed)
  3756                           ; jumptable            260     6 (fixed)
  3757                           ;	Chosen strategy is simple_byte
  3758  04C7  0871               	movf	??_ModeManager_Update+1,w
  3759  04C8  3A00               	xorlw	0	; case 0
  3760  04C9  1903               	skipnz
  3761  04CA  2CCC               	goto	i1l2624
  3762  04CB  2CD7               	goto	i1l218
  3763  04CC                     i1l2624:
  3764                           
  3765                           ; Switch size 1, requested type "simple"
  3766                           ; Number of cases is 3, Range of values is 0 to 2
  3767                           ; switch strategies available:
  3768                           ; Name         Instructions Cycles
  3769                           ; simple_byte           10     6 (average)
  3770                           ; direct_byte           17     8 (fixed)
  3771                           ; jumptable            260     6 (fixed)
  3772                           ;	Chosen strategy is simple_byte
  3773  04CC  0870               	movf	??_ModeManager_Update,w
  3774  04CD  3A00               	xorlw	0	; case 0
  3775  04CE  1903               	skipnz
  3776  04CF  2CBA               	goto	i1l217
  3777  04D0  3A01               	xorlw	1	; case 1
  3778  04D1  1903               	skipnz
  3779  04D2  2CBD               	goto	i1l2234
  3780  04D3  3A03               	xorlw	3	; case 2
  3781  04D4  1903               	skipnz
  3782  04D5  2CC2               	goto	i1l2236
  3783  04D6  2CD7               	goto	i1l218
  3784  04D7                     i1l218:
  3785                           
  3786                           ;ModeManger/ModeManager.c: 35:         ButtonsFlag.SettingButton_Flag=0;
  3787  04D7  117C               	bcf	_ButtonsFlag,2
  3788  04D8                     i1l221:
  3789  04D8  0008               	return
  3790  04D9                     __end_of_ModeManager_Update:
  3791                           
  3792                           	psect	text25
  3793  02DB                     __ptext25:	
  3794 ;; *************** function _Buttons_Update *****************
  3795 ;; Defined at:
  3796 ;;		line 24 in file "Buttons/Buttons.c"
  3797 ;; Parameters:    Size  Location     Type
  3798 ;;		None
  3799 ;; Auto vars:     Size  Location     Type
  3800 ;;		None
  3801 ;; Return value:  Size  Location     Type
  3802 ;;                  1    wreg      void 
  3803 ;; Registers used:
  3804 ;;		wreg, fsr0l, fsr0h, status,2, status,0, btemp+1, pclath, cstack
  3805 ;; Tracked objects:
  3806 ;;		On entry : 0/0
  3807 ;;		On exit  : 0/0
  3808 ;;		Unchanged: 0/0
  3809 ;; Data sizes:     COMMON   BANK0   BANK1   BANK3   BANK2
  3810 ;;      Params:         0       0       0       0       0
  3811 ;;      Locals:         0       0       0       0       0
  3812 ;;      Temps:          0       0       0       0       0
  3813 ;;      Totals:         0       0       0       0       0
  3814 ;;Total ram usage:        0 bytes
  3815 ;; Hardware stack levels used:    1
  3816 ;; Hardware stack levels required when called:    1
  3817 ;; This function calls:
  3818 ;;		i1___awmod
  3819 ;; This function is called by:
  3820 ;;		_Scheduler_Task2
  3821 ;; This function uses a non-reentrant model
  3822 ;;
  3823                           
  3824                           
  3825                           ;psect for function _Buttons_Update
  3826  02DB                     _Buttons_Update:
  3827  02DB                     i1l2194:	
  3828                           ;incstack = 0
  3829                           ; Regs used in _Buttons_Update: [wreg-fsr0h+status,2+status,0+btemp+1+pclath+cstack]
  3830                           
  3831                           
  3832                           ;Buttons/Buttons.c: 26:     static uint8_t Debounce_Counter=0;;Buttons/Buttons.c: 27:   
      +                            Debounce_UpButton[Debounce_Counter]=(PORTB&(1<<1));
  3833  02DB  1283               	bcf	3,5	;RP0=0, select bank0
  3834  02DC  1303               	bcf	3,6	;RP1=0, select bank0
  3835  02DD  0806               	movf	6,w	;volatile
  3836  02DE  3902               	andlw	2
  3837  02DF  00FF               	movwf	btemp+1
  3838  02E0  087B               	movf	Buttons_Update@Debounce_Counter,w
  3839  02E1  3E31               	addlw	(low (_Debounce_UpButton| 0))& (0+255)
  3840  02E2  0084               	movwf	4
  3841  02E3  087F               	movf	btemp+1,w
  3842  02E4  1383               	bcf	3,7	;select IRP bank0
  3843  02E5  0080               	movwf	0
  3844                           
  3845                           ;Buttons/Buttons.c: 28:     Debounce_DownButton[Debounce_Counter]=(PORTB&(1<<0));
  3846  02E6  0806               	movf	6,w	;volatile
  3847  02E7  3901               	andlw	1
  3848  02E8  00FF               	movwf	btemp+1
  3849  02E9  087B               	movf	Buttons_Update@Debounce_Counter,w
  3850  02EA  3E2E               	addlw	(low (_Debounce_DownButton| 0))& (0+255)
  3851  02EB  0084               	movwf	4
  3852  02EC  087F               	movf	btemp+1,w
  3853  02ED  0080               	movwf	0
  3854  02EE                     i1l2196:
  3855                           
  3856                           ;Buttons/Buttons.c: 30:     Debounce_Counter=(Debounce_Counter+1)%3;
  3857  02EE  3003               	movlw	3
  3858  02EF  00F0               	movwf	i1___awmod@divisor
  3859  02F0  3000               	movlw	0
  3860  02F1  00F1               	movwf	i1___awmod@divisor+1
  3861  02F2  087B               	movf	Buttons_Update@Debounce_Counter,w
  3862  02F3  3E01               	addlw	1
  3863  02F4  00F2               	movwf	i1___awmod@dividend
  3864  02F5  3000               	movlw	0
  3865  02F6  1803               	skipnc
  3866  02F7  3001               	movlw	1
  3867  02F8  00F3               	movwf	i1___awmod@dividend+1
  3868  02F9  120A  118A  222C  120A  118A  	fcall	i1___awmod
  3869  02FE  0870               	movf	?i1___awmod,w
  3870  02FF  00FF               	movwf	btemp+1
  3871  0300  087F               	movf	btemp+1,w
  3872  0301  00FB               	movwf	Buttons_Update@Debounce_Counter
  3873  0302                     i1l2198:
  3874                           
  3875                           ;Buttons/Buttons.c: 31:     if(Debounce_UpButton[0]==0 &&Debounce_UpButton[1]==0 &&Debou
      +                          nce_UpButton[2]==0 )
  3876  0302  1283               	bcf	3,5	;RP0=0, select bank0
  3877  0303  1303               	bcf	3,6	;RP1=0, select bank0
  3878  0304  0831               	movf	_Debounce_UpButton,w
  3879  0305  1D03               	btfss	3,2
  3880  0306  2B08               	goto	u144_21
  3881  0307  2B09               	goto	u144_20
  3882  0308                     u144_21:
  3883  0308  2B1A               	goto	i1l2206
  3884  0309                     u144_20:
  3885  0309                     i1l2200:
  3886  0309  0832               	movf	_Debounce_UpButton+1,w
  3887  030A  1D03               	btfss	3,2
  3888  030B  2B0D               	goto	u145_21
  3889  030C  2B0E               	goto	u145_20
  3890  030D                     u145_21:
  3891  030D  2B1A               	goto	i1l2206
  3892  030E                     u145_20:
  3893  030E                     i1l2202:
  3894  030E  0833               	movf	_Debounce_UpButton+2,w
  3895  030F  1D03               	btfss	3,2
  3896  0310  2B12               	goto	u146_21
  3897  0311  2B13               	goto	u146_20
  3898  0312                     u146_21:
  3899  0312  2B1A               	goto	i1l2206
  3900  0313                     u146_20:
  3901  0313                     i1l2204:
  3902                           
  3903                           ;Buttons/Buttons.c: 32:     {;Buttons/Buttons.c: 33:         ButtonsFlag.UpButton_Flag=1
      +                          ;
  3904  0313  147C               	bsf	_ButtonsFlag,0
  3905                           
  3906                           ;Buttons/Buttons.c: 34:         Debounce_UpButton[0]=1 ;Debounce_UpButton[1]=1 ;Debounce
      +                          _UpButton[2]=1 ;
  3907  0314  01B1               	clrf	_Debounce_UpButton
  3908  0315  0AB1               	incf	_Debounce_UpButton,f
  3909  0316  01B2               	clrf	_Debounce_UpButton+1
  3910  0317  0AB2               	incf	_Debounce_UpButton+1,f
  3911  0318  01B3               	clrf	_Debounce_UpButton+2
  3912  0319  0AB3               	incf	_Debounce_UpButton+2,f
  3913  031A                     i1l2206:
  3914                           
  3915                           ;Buttons/Buttons.c: 37:     if(Debounce_DownButton[0]==0 &&Debounce_DownButton[1]==0 &&D
      +                          ebounce_DownButton[2]==0 )
  3916  031A  082E               	movf	_Debounce_DownButton,w
  3917  031B  1D03               	btfss	3,2
  3918  031C  2B1E               	goto	u147_21
  3919  031D  2B1F               	goto	u147_20
  3920  031E                     u147_21:
  3921  031E  2B30               	goto	i1l94
  3922  031F                     u147_20:
  3923  031F                     i1l2208:
  3924  031F  082F               	movf	_Debounce_DownButton+1,w
  3925  0320  1D03               	btfss	3,2
  3926  0321  2B23               	goto	u148_21
  3927  0322  2B24               	goto	u148_20
  3928  0323                     u148_21:
  3929  0323  2B30               	goto	i1l94
  3930  0324                     u148_20:
  3931  0324                     i1l2210:
  3932  0324  0830               	movf	_Debounce_DownButton+2,w
  3933  0325  1D03               	btfss	3,2
  3934  0326  2B28               	goto	u149_21
  3935  0327  2B29               	goto	u149_20
  3936  0328                     u149_21:
  3937  0328  2B30               	goto	i1l94
  3938  0329                     u149_20:
  3939  0329                     i1l2212:
  3940                           
  3941                           ;Buttons/Buttons.c: 38:     {;Buttons/Buttons.c: 39:         ButtonsFlag.DownButton_Flag
      +                          =1;
  3942  0329  14FC               	bsf	_ButtonsFlag,1
  3943                           
  3944                           ;Buttons/Buttons.c: 40:         Debounce_DownButton[0]=1 ;Debounce_DownButton[1]=1 ;Debo
      +                          unce_DownButton[2]=1 ;
  3945  032A  01AE               	clrf	_Debounce_DownButton
  3946  032B  0AAE               	incf	_Debounce_DownButton,f
  3947  032C  01AF               	clrf	_Debounce_DownButton+1
  3948  032D  0AAF               	incf	_Debounce_DownButton+1,f
  3949  032E  01B0               	clrf	_Debounce_DownButton+2
  3950  032F  0AB0               	incf	_Debounce_DownButton+2,f
  3951  0330                     i1l94:
  3952  0330  0008               	return
  3953  0331                     __end_of_Buttons_Update:
  3954                           
  3955                           	psect	text26
  3956  022C                     __ptext26:	
  3957 ;; *************** function i1___awmod *****************
  3958 ;; Defined at:
  3959 ;;		line 5 in file "C:\Program Files (x86)\Microchip\xc8\v2.20\pic\sources\c90\common\awmod.c"
  3960 ;; Parameters:    Size  Location     Type
  3961 ;;  divisor         2    0[COMMON] int 
  3962 ;;  dividend        2    2[COMMON] int 
  3963 ;; Auto vars:     Size  Location     Type
  3964 ;;  sign            1    5[COMMON] unsigned char 
  3965 ;;  counter         1    4[COMMON] unsigned char 
  3966 ;; Return value:  Size  Location     Type
  3967 ;;                  2    0[COMMON] int 
  3968 ;; Registers used:
  3969 ;;		wreg, status,2, status,0, btemp+1
  3970 ;; Tracked objects:
  3971 ;;		On entry : 0/0
  3972 ;;		On exit  : 0/0
  3973 ;;		Unchanged: 0/0
  3974 ;; Data sizes:     COMMON   BANK0   BANK1   BANK3   BANK2
  3975 ;;      Params:         4       0       0       0       0
  3976 ;;      Locals:         2       0       0       0       0
  3977 ;;      Temps:          0       0       0       0       0
  3978 ;;      Totals:         6       0       0       0       0
  3979 ;;Total ram usage:        6 bytes
  3980 ;; Hardware stack levels used:    1
  3981 ;; This function calls:
  3982 ;;		Nothing
  3983 ;; This function is called by:
  3984 ;;		_Buttons_Update
  3985 ;; This function uses a non-reentrant model
  3986 ;;
  3987                           
  3988                           
  3989                           ;psect for function i1___awmod
  3990  022C                     i1___awmod:
  3991  022C                     i1l2156:	
  3992                           ;incstack = 0
  3993                           ; Regs used in i1___awmod: [wreg+status,2+status,0+btemp+1]
  3994                           
  3995  022C  01F5               	clrf	i1___awmod@sign
  3996  022D                     i1l2158:
  3997  022D  1FF3               	btfss	i1___awmod@dividend+1,7
  3998  022E  2A30               	goto	u135_21
  3999  022F  2A31               	goto	u135_20
  4000  0230                     u135_21:
  4001  0230  2A38               	goto	i1l2164
  4002  0231                     u135_20:
  4003  0231                     i1l2160:
  4004  0231  09F2               	comf	i1___awmod@dividend,f
  4005  0232  09F3               	comf	i1___awmod@dividend+1,f
  4006  0233  0AF2               	incf	i1___awmod@dividend,f
  4007  0234  1903               	skipnz
  4008  0235  0AF3               	incf	i1___awmod@dividend+1,f
  4009  0236                     i1l2162:
  4010  0236  01F5               	clrf	i1___awmod@sign
  4011  0237  0AF5               	incf	i1___awmod@sign,f
  4012  0238                     i1l2164:
  4013  0238  1FF1               	btfss	i1___awmod@divisor+1,7
  4014  0239  2A3B               	goto	u136_21
  4015  023A  2A3C               	goto	u136_20
  4016  023B                     u136_21:
  4017  023B  2A41               	goto	i1l2168
  4018  023C                     u136_20:
  4019  023C                     i1l2166:
  4020  023C  09F0               	comf	i1___awmod@divisor,f
  4021  023D  09F1               	comf	i1___awmod@divisor+1,f
  4022  023E  0AF0               	incf	i1___awmod@divisor,f
  4023  023F  1903               	skipnz
  4024  0240  0AF1               	incf	i1___awmod@divisor+1,f
  4025  0241                     i1l2168:
  4026  0241  0870               	movf	i1___awmod@divisor,w
  4027  0242  0471               	iorwf	i1___awmod@divisor+1,w
  4028  0243  1903               	btfsc	3,2
  4029  0244  2A46               	goto	u137_21
  4030  0245  2A47               	goto	u137_20
  4031  0246                     u137_21:
  4032  0246  2A76               	goto	i1l2186
  4033  0247                     u137_20:
  4034  0247                     i1l2170:
  4035  0247  01F4               	clrf	i1___awmod@counter
  4036  0248  0AF4               	incf	i1___awmod@counter,f
  4037  0249  2A55               	goto	i1l2176
  4038  024A                     i1l2172:
  4039  024A  3001               	movlw	1
  4040  024B                     u138_25:
  4041  024B  1003               	clrc
  4042  024C  0DF0               	rlf	i1___awmod@divisor,f
  4043  024D  0DF1               	rlf	i1___awmod@divisor+1,f
  4044  024E  3EFF               	addlw	-1
  4045  024F  1D03               	skipz
  4046  0250  2A4B               	goto	u138_25
  4047  0251                     i1l2174:
  4048  0251  3001               	movlw	1
  4049  0252  00FF               	movwf	btemp+1
  4050  0253  087F               	movf	btemp+1,w
  4051  0254  07F4               	addwf	i1___awmod@counter,f
  4052  0255                     i1l2176:
  4053  0255  1FF1               	btfss	i1___awmod@divisor+1,7
  4054  0256  2A58               	goto	u139_21
  4055  0257  2A59               	goto	u139_20
  4056  0258                     u139_21:
  4057  0258  2A4A               	goto	i1l2172
  4058  0259                     u139_20:
  4059  0259                     i1l2178:
  4060  0259  0871               	movf	i1___awmod@divisor+1,w
  4061  025A  0273               	subwf	i1___awmod@dividend+1,w
  4062  025B  1D03               	skipz
  4063  025C  2A5F               	goto	u140_25
  4064  025D  0870               	movf	i1___awmod@divisor,w
  4065  025E  0272               	subwf	i1___awmod@dividend,w
  4066  025F                     u140_25:
  4067  025F  1C03               	skipc
  4068  0260  2A62               	goto	u140_21
  4069  0261  2A63               	goto	u140_20
  4070  0262                     u140_21:
  4071  0262  2A69               	goto	i1l2182
  4072  0263                     u140_20:
  4073  0263                     i1l2180:
  4074  0263  0870               	movf	i1___awmod@divisor,w
  4075  0264  02F2               	subwf	i1___awmod@dividend,f
  4076  0265  0871               	movf	i1___awmod@divisor+1,w
  4077  0266  1C03               	skipc
  4078  0267  03F3               	decf	i1___awmod@dividend+1,f
  4079  0268  02F3               	subwf	i1___awmod@dividend+1,f
  4080  0269                     i1l2182:
  4081  0269  3001               	movlw	1
  4082  026A                     u141_25:
  4083  026A  1003               	clrc
  4084  026B  0CF1               	rrf	i1___awmod@divisor+1,f
  4085  026C  0CF0               	rrf	i1___awmod@divisor,f
  4086  026D  3EFF               	addlw	-1
  4087  026E  1D03               	skipz
  4088  026F  2A6A               	goto	u141_25
  4089  0270                     i1l2184:
  4090  0270  3001               	movlw	1
  4091  0271  02F4               	subwf	i1___awmod@counter,f
  4092  0272  1D03               	btfss	3,2
  4093  0273  2A75               	goto	u142_21
  4094  0274  2A76               	goto	u142_20
  4095  0275                     u142_21:
  4096  0275  2A59               	goto	i1l2178
  4097  0276                     u142_20:
  4098  0276                     i1l2186:
  4099  0276  0875               	movf	i1___awmod@sign,w
  4100  0277  1903               	btfsc	3,2
  4101  0278  2A7A               	goto	u143_21
  4102  0279  2A7B               	goto	u143_20
  4103  027A                     u143_21:
  4104  027A  2A80               	goto	i1l2190
  4105  027B                     u143_20:
  4106  027B                     i1l2188:
  4107  027B  09F2               	comf	i1___awmod@dividend,f
  4108  027C  09F3               	comf	i1___awmod@dividend+1,f
  4109  027D  0AF2               	incf	i1___awmod@dividend,f
  4110  027E  1903               	skipnz
  4111  027F  0AF3               	incf	i1___awmod@dividend+1,f
  4112  0280                     i1l2190:
  4113  0280  0873               	movf	i1___awmod@dividend+1,w
  4114  0281  00F1               	movwf	?i1___awmod+1
  4115  0282  0872               	movf	i1___awmod@dividend,w
  4116  0283  00F0               	movwf	?i1___awmod
  4117  0284                     i1l610:
  4118  0284  0008               	return
  4119  0285                     __end_ofi1___awmod:
  4120                           
  4121                           	psect	text27
  4122  046A                     __ptext27:	
  4123 ;; *************** function _Display_Update *****************
  4124 ;; Defined at:
  4125 ;;		line 35 in file "Display/Display.c"
  4126 ;; Parameters:    Size  Location     Type
  4127 ;;		None
  4128 ;; Auto vars:     Size  Location     Type
  4129 ;;		None
  4130 ;; Return value:  Size  Location     Type
  4131 ;;                  1    wreg      void 
  4132 ;; Registers used:
  4133 ;;		wreg, fsr0l, fsr0h, status,2, status,0, btemp+1, pclath, cstack
  4134 ;; Tracked objects:
  4135 ;;		On entry : 0/0
  4136 ;;		On exit  : 0/0
  4137 ;;		Unchanged: 0/0
  4138 ;; Data sizes:     COMMON   BANK0   BANK1   BANK3   BANK2
  4139 ;;      Params:         0       0       0       0       0
  4140 ;;      Locals:         0       0       0       0       0
  4141 ;;      Temps:          2       0       0       0       0
  4142 ;;      Totals:         2       0       0       0       0
  4143 ;;Total ram usage:        2 bytes
  4144 ;; Hardware stack levels used:    1
  4145 ;; Hardware stack levels required when called:    2
  4146 ;; This function calls:
  4147 ;;		_Display_Hour_Setting
  4148 ;;		_Display_Minutes_Setting
  4149 ;;		_Display_Normal
  4150 ;; This function is called by:
  4151 ;;		_Scheduler_Task1
  4152 ;; This function uses a non-reentrant model
  4153 ;;
  4154                           
  4155                           
  4156                           ;psect for function _Display_Update
  4157  046A                     _Display_Update:
  4158  046A                     i1l2214:	
  4159                           ;incstack = 0
  4160 ;; hardware stack exceeded
  4161                           ; Regs used in _Display_Update: [wreg-fsr0h+status,2+status,0+btemp+1+pclath+cstack]
  4162                           
  4163                           
  4164                           ;Display/Display.c: 37:    switch(MODE)
  4165  046A  2C7D               	goto	i1l2224
  4166  046B                     i1l2216:
  4167                           
  4168                           ;Display/Display.c: 40:                               Display_Normal();
  4169  046B  120A  118A  253C  120A  118A  	fcall	_Display_Normal
  4170                           
  4171                           ;Display/Display.c: 41:                               break;
  4172  0470  2C90               	goto	i1l181
  4173  0471                     i1l2218:
  4174                           
  4175                           ;Display/Display.c: 44:                               Display_Hour_Setting();
  4176  0471  120A  118A  25EC  120A  118A  	fcall	_Display_Hour_Setting
  4177                           
  4178                           ;Display/Display.c: 45:                               break;
  4179  0476  2C90               	goto	i1l181
  4180  0477                     i1l2220:
  4181                           
  4182                           ;Display/Display.c: 48:                               Display_Minutes_Setting();
  4183  0477  120A  118A  25EB  120A  118A  	fcall	_Display_Minutes_Setting
  4184                           
  4185                           ;Display/Display.c: 49:                               break;
  4186  047C  2C90               	goto	i1l181
  4187  047D                     i1l2224:
  4188  047D  087D               	movf	_MODE,w
  4189  047E  00F3               	movwf	??_Display_Update
  4190  047F  01F4               	clrf	??_Display_Update+1
  4191                           
  4192                           ; Switch on 2 bytes has been partitioned into a top level switch of size 1, and 1 sub-sw
      +                          itches
  4193                           ; Switch size 1, requested type "simple"
  4194                           ; Number of cases is 1, Range of values is 0 to 0
  4195                           ; switch strategies available:
  4196                           ; Name         Instructions Cycles
  4197                           ; simple_byte            4     3 (average)
  4198                           ; direct_byte           11     8 (fixed)
  4199                           ; jumptable            260     6 (fixed)
  4200                           ;	Chosen strategy is simple_byte
  4201  0480  0874               	movf	??_Display_Update+1,w
  4202  0481  3A00               	xorlw	0	; case 0
  4203  0482  1903               	skipnz
  4204  0483  2C85               	goto	i1l2626
  4205  0484  2C90               	goto	i1l181
  4206  0485                     i1l2626:
  4207                           
  4208                           ; Switch size 1, requested type "simple"
  4209                           ; Number of cases is 3, Range of values is 0 to 2
  4210                           ; switch strategies available:
  4211                           ; Name         Instructions Cycles
  4212                           ; simple_byte           10     6 (average)
  4213                           ; direct_byte           17     8 (fixed)
  4214                           ; jumptable            260     6 (fixed)
  4215                           ;	Chosen strategy is simple_byte
  4216  0485  0873               	movf	??_Display_Update,w
  4217  0486  3A00               	xorlw	0	; case 0
  4218  0487  1903               	skipnz
  4219  0488  2C6B               	goto	i1l2216
  4220  0489  3A01               	xorlw	1	; case 1
  4221  048A  1903               	skipnz
  4222  048B  2C71               	goto	i1l2218
  4223  048C  3A03               	xorlw	3	; case 2
  4224  048D  1903               	skipnz
  4225  048E  2C77               	goto	i1l2220
  4226  048F  2C90               	goto	i1l181
  4227  0490                     i1l181:
  4228  0490  0008               	return
  4229  0491                     __end_of_Display_Update:
  4230                           
  4231                           	psect	text28
  4232  053C                     __ptext28:	
  4233 ;; *************** function _Display_Normal *****************
  4234 ;; Defined at:
  4235 ;;		line 57 in file "Display/Display.c"
  4236 ;; Parameters:    Size  Location     Type
  4237 ;;		None
  4238 ;; Auto vars:     Size  Location     Type
  4239 ;;		None
  4240 ;; Return value:  Size  Location     Type
  4241 ;;                  1    wreg      void 
  4242 ;; Registers used:
  4243 ;;		wreg, fsr0l, fsr0h, status,2, status,0, btemp+1, pclath, cstack
  4244 ;; Tracked objects:
  4245 ;;		On entry : 0/0
  4246 ;;		On exit  : 0/0
  4247 ;;		Unchanged: 0/0
  4248 ;; Data sizes:     COMMON   BANK0   BANK1   BANK3   BANK2
  4249 ;;      Params:         0       0       0       0       0
  4250 ;;      Locals:         0       0       0       0       0
  4251 ;;      Temps:          0       0       0       0       0
  4252 ;;      Totals:         0       0       0       0       0
  4253 ;;Total ram usage:        0 bytes
  4254 ;; Hardware stack levels used:    1
  4255 ;; Hardware stack levels required when called:    1
  4256 ;; This function calls:
  4257 ;;		_SSD_DigitSelector
  4258 ;;		_SSD_Display
  4259 ;; This function is called by:
  4260 ;;		_Display_Update
  4261 ;; This function uses a non-reentrant model
  4262 ;;
  4263                           
  4264                           
  4265                           ;psect for function _Display_Normal
  4266  053C                     _Display_Normal:
  4267  053C                     i1l2088:	
  4268                           ;incstack = 0
  4269 ;; hardware stack exceeded
  4270                           ; Regs used in _Display_Normal: [wreg-fsr0h+status,2+status,0+btemp+1+pclath+cstack]
  4271                           
  4272                           
  4273                           ;Display/Display.c: 59:     Display^=1;
  4274  053C  3001               	movlw	1
  4275  053D  00FF               	movwf	btemp+1
  4276  053E  087F               	movf	btemp+1,w
  4277  053F  1283               	bcf	3,5	;RP0=0, select bank0
  4278  0540  1303               	bcf	3,6	;RP1=0, select bank0
  4279  0541  06AD               	xorwf	_Display,f
  4280  0542                     i1l2090:
  4281                           
  4282                           ;Display/Display.c: 61:     if(Display==Minutes)
  4283  0542  082D               	movf	_Display,w
  4284  0543  1D03               	btfss	3,2
  4285  0544  2D46               	goto	u119_21
  4286  0545  2D47               	goto	u119_20
  4287  0546                     u119_21:
  4288  0546  2D4E               	goto	i1l2094
  4289  0547                     u119_20:
  4290  0547                     i1l2092:
  4291                           
  4292                           ;Display/Display.c: 62:     {;Display/Display.c: 63:         SSD_Display(Clock.Minutes);
  4293  0547  0825               	movf	_Clock+1,w
  4294  0548  120A  118A  2174  120A  118A  	fcall	_SSD_Display
  4295                           
  4296                           ;Display/Display.c: 64:     }
  4297  054D  2D54               	goto	i1l2096
  4298  054E                     i1l2094:
  4299                           
  4300                           ;Display/Display.c: 66:     {;Display/Display.c: 67:         SSD_Display(Clock.Hours);
  4301  054E  0826               	movf	_Clock+2,w
  4302  054F  120A  118A  2174  120A  118A  	fcall	_SSD_Display
  4303  0554                     i1l2096:
  4304                           
  4305                           ;Display/Display.c: 69:    SSD_DigitSelector();
  4306  0554  120A  118A  2331  120A  118A  	fcall	_SSD_DigitSelector
  4307  0559                     i1l186:
  4308  0559  0008               	return
  4309  055A                     __end_of_Display_Normal:
  4310                           
  4311                           	psect	text29
  4312  0174                     __ptext29:	
  4313 ;; *************** function _SSD_Display *****************
  4314 ;; Defined at:
  4315 ;;		line 51 in file "SSD/SSD.c"
  4316 ;; Parameters:    Size  Location     Type
  4317 ;;  Number          1    wreg     unsigned char 
  4318 ;; Auto vars:     Size  Location     Type
  4319 ;;  Number          1    2[COMMON] unsigned char 
  4320 ;; Return value:  Size  Location     Type
  4321 ;;                  1    wreg      void 
  4322 ;; Registers used:
  4323 ;;		wreg, fsr0l, fsr0h, status,2, status,0
  4324 ;; Tracked objects:
  4325 ;;		On entry : 0/0
  4326 ;;		On exit  : 0/0
  4327 ;;		Unchanged: 0/0
  4328 ;; Data sizes:     COMMON   BANK0   BANK1   BANK3   BANK2
  4329 ;;      Params:         0       0       0       0       0
  4330 ;;      Locals:         1       0       0       0       0
  4331 ;;      Temps:          2       0       0       0       0
  4332 ;;      Totals:         3       0       0       0       0
  4333 ;;Total ram usage:        3 bytes
  4334 ;; Hardware stack levels used:    1
  4335 ;; This function calls:
  4336 ;;		Nothing
  4337 ;; This function is called by:
  4338 ;;		_Display_Normal
  4339 ;; This function uses a non-reentrant model
  4340 ;;
  4341                           
  4342                           
  4343                           ;psect for function _SSD_Display
  4344  0174                     _SSD_Display:
  4345                           
  4346                           ;incstack = 0
  4347 ;; hardware stack exceeded
  4348                           ; Regs used in _SSD_Display: [wreg-fsr0h+status,2+status,0]
  4349                           ;SSD_Display@Number stored from wreg
  4350  0174  00F2               	movwf	SSD_Display@Number
  4351  0175                     i1l2036:
  4352                           
  4353                           ;SSD/SSD.c: 51: void SSD_Display(uint8_t Number);SSD/SSD.c: 52: {;SSD/SSD.c: 54:    swit
      +                          ch(Number)
  4354  0175  29A8               	goto	i1l2060
  4355  0176                     i1l2038:
  4356                           
  4357                           ;SSD/SSD.c: 57:         PORTD=0b00111111;
  4358  0176  303F               	movlw	63
  4359  0177  1283               	bcf	3,5	;RP0=0, select bank0
  4360  0178  1303               	bcf	3,6	;RP1=0, select bank0
  4361  0179  0088               	movwf	8	;volatile
  4362                           
  4363                           ;SSD/SSD.c: 58:         break;
  4364  017A  29D0               	goto	i1l358
  4365  017B                     i1l2040:
  4366                           
  4367                           ;SSD/SSD.c: 61:         PORTD=0b00000110;
  4368  017B  3006               	movlw	6
  4369  017C  1283               	bcf	3,5	;RP0=0, select bank0
  4370  017D  1303               	bcf	3,6	;RP1=0, select bank0
  4371  017E  0088               	movwf	8	;volatile
  4372                           
  4373                           ;SSD/SSD.c: 62:         break;
  4374  017F  29D0               	goto	i1l358
  4375  0180                     i1l2042:
  4376                           
  4377                           ;SSD/SSD.c: 65:         PORTD=0b01011011;
  4378  0180  305B               	movlw	91
  4379  0181  1283               	bcf	3,5	;RP0=0, select bank0
  4380  0182  1303               	bcf	3,6	;RP1=0, select bank0
  4381  0183  0088               	movwf	8	;volatile
  4382                           
  4383                           ;SSD/SSD.c: 66:         break;
  4384  0184  29D0               	goto	i1l358
  4385  0185                     i1l2044:
  4386                           
  4387                           ;SSD/SSD.c: 69:         PORTD=0b01001111;
  4388  0185  304F               	movlw	79
  4389  0186  1283               	bcf	3,5	;RP0=0, select bank0
  4390  0187  1303               	bcf	3,6	;RP1=0, select bank0
  4391  0188  0088               	movwf	8	;volatile
  4392                           
  4393                           ;SSD/SSD.c: 70:         break;
  4394  0189  29D0               	goto	i1l358
  4395  018A                     i1l2046:
  4396                           
  4397                           ;SSD/SSD.c: 73:         PORTD=0b01100110;
  4398  018A  3066               	movlw	102
  4399  018B  1283               	bcf	3,5	;RP0=0, select bank0
  4400  018C  1303               	bcf	3,6	;RP1=0, select bank0
  4401  018D  0088               	movwf	8	;volatile
  4402                           
  4403                           ;SSD/SSD.c: 74:         break;
  4404  018E  29D0               	goto	i1l358
  4405  018F                     i1l2048:
  4406                           
  4407                           ;SSD/SSD.c: 77:         PORTD=0b01101101;
  4408  018F  306D               	movlw	109
  4409  0190  1283               	bcf	3,5	;RP0=0, select bank0
  4410  0191  1303               	bcf	3,6	;RP1=0, select bank0
  4411  0192  0088               	movwf	8	;volatile
  4412                           
  4413                           ;SSD/SSD.c: 78:         break;
  4414  0193  29D0               	goto	i1l358
  4415  0194                     i1l2050:
  4416                           
  4417                           ;SSD/SSD.c: 81:         PORTD=0b01111101;
  4418  0194  307D               	movlw	125
  4419  0195  1283               	bcf	3,5	;RP0=0, select bank0
  4420  0196  1303               	bcf	3,6	;RP1=0, select bank0
  4421  0197  0088               	movwf	8	;volatile
  4422                           
  4423                           ;SSD/SSD.c: 82:         break;
  4424  0198  29D0               	goto	i1l358
  4425  0199                     i1l2052:
  4426                           
  4427                           ;SSD/SSD.c: 85:         PORTD=0b00000111;
  4428  0199  3007               	movlw	7
  4429  019A  1283               	bcf	3,5	;RP0=0, select bank0
  4430  019B  1303               	bcf	3,6	;RP1=0, select bank0
  4431  019C  0088               	movwf	8	;volatile
  4432                           
  4433                           ;SSD/SSD.c: 86:         break;
  4434  019D  29D0               	goto	i1l358
  4435  019E                     i1l2054:
  4436                           
  4437                           ;SSD/SSD.c: 89:         PORTD=0b01111111;
  4438  019E  307F               	movlw	127
  4439  019F  1283               	bcf	3,5	;RP0=0, select bank0
  4440  01A0  1303               	bcf	3,6	;RP1=0, select bank0
  4441  01A1  0088               	movwf	8	;volatile
  4442                           
  4443                           ;SSD/SSD.c: 90:         break;
  4444  01A2  29D0               	goto	i1l358
  4445  01A3                     i1l2056:
  4446                           
  4447                           ;SSD/SSD.c: 93:         PORTD=0b01101111;
  4448  01A3  306F               	movlw	111
  4449  01A4  1283               	bcf	3,5	;RP0=0, select bank0
  4450  01A5  1303               	bcf	3,6	;RP1=0, select bank0
  4451  01A6  0088               	movwf	8	;volatile
  4452                           
  4453                           ;SSD/SSD.c: 94:         break;
  4454  01A7  29D0               	goto	i1l358
  4455  01A8                     i1l2060:
  4456  01A8  0872               	movf	SSD_Display@Number,w
  4457  01A9  00F0               	movwf	??_SSD_Display
  4458  01AA  01F1               	clrf	??_SSD_Display+1
  4459                           
  4460                           ; Switch on 2 bytes has been partitioned into a top level switch of size 1, and 1 sub-sw
      +                          itches
  4461                           ; Switch size 1, requested type "simple"
  4462                           ; Number of cases is 1, Range of values is 0 to 0
  4463                           ; switch strategies available:
  4464                           ; Name         Instructions Cycles
  4465                           ; simple_byte            4     3 (average)
  4466                           ; direct_byte           11     8 (fixed)
  4467                           ; jumptable            260     6 (fixed)
  4468                           ;	Chosen strategy is simple_byte
  4469  01AB  0871               	movf	??_SSD_Display+1,w
  4470  01AC  3A00               	xorlw	0	; case 0
  4471  01AD  1903               	skipnz
  4472  01AE  29B0               	goto	i1l2628
  4473  01AF  29D0               	goto	i1l358
  4474  01B0                     i1l2628:
  4475                           
  4476                           ; Switch size 1, requested type "simple"
  4477                           ; Number of cases is 10, Range of values is 0 to 9
  4478                           ; switch strategies available:
  4479                           ; Name         Instructions Cycles
  4480                           ; simple_byte           31    16 (average)
  4481                           ; direct_byte           38     8 (fixed)
  4482                           ; jumptable            260     6 (fixed)
  4483                           ;	Chosen strategy is simple_byte
  4484  01B0  0870               	movf	??_SSD_Display,w
  4485  01B1  3A00               	xorlw	0	; case 0
  4486  01B2  1903               	skipnz
  4487  01B3  2976               	goto	i1l2038
  4488  01B4  3A01               	xorlw	1	; case 1
  4489  01B5  1903               	skipnz
  4490  01B6  297B               	goto	i1l2040
  4491  01B7  3A03               	xorlw	3	; case 2
  4492  01B8  1903               	skipnz
  4493  01B9  2980               	goto	i1l2042
  4494  01BA  3A01               	xorlw	1	; case 3
  4495  01BB  1903               	skipnz
  4496  01BC  2985               	goto	i1l2044
  4497  01BD  3A07               	xorlw	7	; case 4
  4498  01BE  1903               	skipnz
  4499  01BF  298A               	goto	i1l2046
  4500  01C0  3A01               	xorlw	1	; case 5
  4501  01C1  1903               	skipnz
  4502  01C2  298F               	goto	i1l2048
  4503  01C3  3A03               	xorlw	3	; case 6
  4504  01C4  1903               	skipnz
  4505  01C5  2994               	goto	i1l2050
  4506  01C6  3A01               	xorlw	1	; case 7
  4507  01C7  1903               	skipnz
  4508  01C8  2999               	goto	i1l2052
  4509  01C9  3A0F               	xorlw	15	; case 8
  4510  01CA  1903               	skipnz
  4511  01CB  299E               	goto	i1l2054
  4512  01CC  3A01               	xorlw	1	; case 9
  4513  01CD  1903               	skipnz
  4514  01CE  29A3               	goto	i1l2056
  4515  01CF  29D0               	goto	i1l358
  4516  01D0                     i1l358:
  4517  01D0  0008               	return
  4518  01D1                     __end_of_SSD_Display:
  4519                           
  4520                           	psect	text30
  4521  0331                     __ptext30:	
  4522 ;; *************** function _SSD_DigitSelector *****************
  4523 ;; Defined at:
  4524 ;;		line 11 in file "SSD/SSD.c"
  4525 ;; Parameters:    Size  Location     Type
  4526 ;;		None
  4527 ;; Auto vars:     Size  Location     Type
  4528 ;;		None
  4529 ;; Return value:  Size  Location     Type
  4530 ;;                  1    wreg      void 
  4531 ;; Registers used:
  4532 ;;		wreg, fsr0l, fsr0h, status,2, status,0, btemp+1
  4533 ;; Tracked objects:
  4534 ;;		On entry : 0/0
  4535 ;;		On exit  : 0/0
  4536 ;;		Unchanged: 0/0
  4537 ;; Data sizes:     COMMON   BANK0   BANK1   BANK3   BANK2
  4538 ;;      Params:         0       0       0       0       0
  4539 ;;      Locals:         0       0       0       0       0
  4540 ;;      Temps:          2       0       0       0       0
  4541 ;;      Totals:         2       0       0       0       0
  4542 ;;Total ram usage:        2 bytes
  4543 ;; Hardware stack levels used:    1
  4544 ;; This function calls:
  4545 ;;		Nothing
  4546 ;; This function is called by:
  4547 ;;		_Display_Normal
  4548 ;; This function uses a non-reentrant model
  4549 ;;
  4550                           
  4551                           
  4552                           ;psect for function _SSD_DigitSelector
  4553  0331                     _SSD_DigitSelector:
  4554  0331                     i1l2066:	
  4555                           ;incstack = 0
  4556 ;; hardware stack exceeded
  4557                           ; Regs used in _SSD_DigitSelector: [wreg-fsr0h+status,2+status,0+btemp+1]
  4558                           
  4559                           
  4560                           ;SSD/SSD.c: 13:     if(MODE==Normal_Mode)
  4561  0331  087D               	movf	_MODE,w
  4562  0332  1D03               	btfss	3,2
  4563  0333  2B35               	goto	u118_21
  4564  0334  2B36               	goto	u118_20
  4565  0335                     u118_21:
  4566  0335  2B82               	goto	i1l343
  4567  0336                     u118_20:
  4568  0336  2B69               	goto	i1l2080
  4569  0337                     i1l338:	
  4570                           ;SSD/SSD.c: 17:       {;SSD/SSD.c: 18:           case Digit_1_:
  4571                           
  4572                           
  4573                           ;SSD/SSD.c: 19:                       (PORTA|=(1<<2));
  4574  0337  1505               	bsf	5,2	;volatile
  4575  0338                     i1l2070:
  4576                           
  4577                           ;SSD/SSD.c: 20:                       (PORTA&=~(1<<3));
  4578  0338  30F7               	movlw	247
  4579  0339  00FF               	movwf	btemp+1
  4580  033A  087F               	movf	btemp+1,w
  4581  033B  0585               	andwf	5,f	;volatile
  4582                           
  4583                           ;SSD/SSD.c: 21:                       (PORTA&=~(1<<4));
  4584  033C  30EF               	movlw	239
  4585  033D  00FF               	movwf	btemp+1
  4586  033E  087F               	movf	btemp+1,w
  4587  033F  0585               	andwf	5,f	;volatile
  4588                           
  4589                           ;SSD/SSD.c: 22:                       (PORTA&=~(1<<5));
  4590  0340  30DF               	movlw	223
  4591  0341  00FF               	movwf	btemp+1
  4592  0342  087F               	movf	btemp+1,w
  4593  0343  0585               	andwf	5,f	;volatile
  4594  0344                     i1l2072:
  4595                           
  4596                           ;SSD/SSD.c: 25:                       (PORTA|=(1<<3));
  4597  0344  1585               	bsf	5,3	;volatile
  4598                           
  4599                           ;SSD/SSD.c: 26:                       (PORTA&=~(1<<2));
  4600  0345  30FB               	movlw	251
  4601  0346  00FF               	movwf	btemp+1
  4602  0347  087F               	movf	btemp+1,w
  4603  0348  0585               	andwf	5,f	;volatile
  4604                           
  4605                           ;SSD/SSD.c: 27:                       (PORTA&=~(1<<4));
  4606  0349  30EF               	movlw	239
  4607  034A  00FF               	movwf	btemp+1
  4608  034B  087F               	movf	btemp+1,w
  4609  034C  0585               	andwf	5,f	;volatile
  4610                           
  4611                           ;SSD/SSD.c: 28:                       (PORTA&=~(1<<5));
  4612  034D  30DF               	movlw	223
  4613  034E  00FF               	movwf	btemp+1
  4614  034F  087F               	movf	btemp+1,w
  4615  0350  0585               	andwf	5,f	;volatile
  4616  0351                     i1l2074:
  4617                           
  4618                           ;SSD/SSD.c: 31:                       (PORTA|=(1<<4));
  4619  0351  1605               	bsf	5,4	;volatile
  4620                           
  4621                           ;SSD/SSD.c: 32:                       (PORTA&=~(1<<2));
  4622  0352  30FB               	movlw	251
  4623  0353  00FF               	movwf	btemp+1
  4624  0354  087F               	movf	btemp+1,w
  4625  0355  0585               	andwf	5,f	;volatile
  4626                           
  4627                           ;SSD/SSD.c: 33:                       (PORTA&=~(1<<4));
  4628  0356  30EF               	movlw	239
  4629  0357  00FF               	movwf	btemp+1
  4630  0358  087F               	movf	btemp+1,w
  4631  0359  0585               	andwf	5,f	;volatile
  4632                           
  4633                           ;SSD/SSD.c: 34:                       (PORTA&=~(1<<5));
  4634  035A  30DF               	movlw	223
  4635  035B  00FF               	movwf	btemp+1
  4636  035C  087F               	movf	btemp+1,w
  4637  035D  0585               	andwf	5,f	;volatile
  4638  035E                     i1l2076:
  4639                           
  4640                           ;SSD/SSD.c: 37:                       (PORTA|=(1<<5));
  4641  035E  1685               	bsf	5,5	;volatile
  4642  035F                     i1l2078:
  4643                           
  4644                           ;SSD/SSD.c: 38:                       (PORTA|=(1<<2));
  4645  035F  1505               	bsf	5,2	;volatile
  4646                           
  4647                           ;SSD/SSD.c: 39:                       (PORTA&=~(1<<3));
  4648  0360  30F7               	movlw	247
  4649  0361  00FF               	movwf	btemp+1
  4650  0362  087F               	movf	btemp+1,w
  4651  0363  0585               	andwf	5,f	;volatile
  4652                           
  4653                           ;SSD/SSD.c: 40:                       (PORTA&=~(1<<4));
  4654  0364  30EF               	movlw	239
  4655  0365  00FF               	movwf	btemp+1
  4656  0366  087F               	movf	btemp+1,w
  4657  0367  0585               	andwf	5,f	;volatile
  4658                           
  4659                           ;SSD/SSD.c: 42:       }
  4660  0368  2B81               	goto	i1l2082
  4661  0369                     i1l2080:
  4662  0369  1283               	bcf	3,5	;RP0=0, select bank0
  4663  036A  1303               	bcf	3,6	;RP1=0, select bank0
  4664  036B  082C               	movf	_DigitSelector,w
  4665  036C  00F0               	movwf	??_SSD_DigitSelector
  4666  036D  01F1               	clrf	??_SSD_DigitSelector+1
  4667                           
  4668                           ; Switch on 2 bytes has been partitioned into a top level switch of size 1, and 1 sub-sw
      +                          itches
  4669                           ; Switch size 1, requested type "simple"
  4670                           ; Number of cases is 1, Range of values is 0 to 0
  4671                           ; switch strategies available:
  4672                           ; Name         Instructions Cycles
  4673                           ; simple_byte            4     3 (average)
  4674                           ; direct_byte           11     8 (fixed)
  4675                           ; jumptable            260     6 (fixed)
  4676                           ;	Chosen strategy is simple_byte
  4677  036E  0871               	movf	??_SSD_DigitSelector+1,w
  4678  036F  3A00               	xorlw	0	; case 0
  4679  0370  1903               	skipnz
  4680  0371  2B73               	goto	i1l2630
  4681  0372  2B81               	goto	i1l2082
  4682  0373                     i1l2630:
  4683                           
  4684                           ; Switch size 1, requested type "simple"
  4685                           ; Number of cases is 4, Range of values is 0 to 3
  4686                           ; switch strategies available:
  4687                           ; Name         Instructions Cycles
  4688                           ; simple_byte           13     7 (average)
  4689                           ; direct_byte           20     8 (fixed)
  4690                           ; jumptable            260     6 (fixed)
  4691                           ;	Chosen strategy is simple_byte
  4692  0373  0870               	movf	??_SSD_DigitSelector,w
  4693  0374  3A00               	xorlw	0	; case 0
  4694  0375  1903               	skipnz
  4695  0376  2B37               	goto	i1l338
  4696  0377  3A01               	xorlw	1	; case 1
  4697  0378  1903               	skipnz
  4698  0379  2B44               	goto	i1l2072
  4699  037A  3A03               	xorlw	3	; case 2
  4700  037B  1903               	skipnz
  4701  037C  2B51               	goto	i1l2074
  4702  037D  3A01               	xorlw	1	; case 3
  4703  037E  1903               	skipnz
  4704  037F  2B5E               	goto	i1l2076
  4705  0380  2B81               	goto	i1l2082
  4706  0381                     i1l2082:
  4707                           
  4708                           ;SSD/SSD.c: 43:       DigitSelector=(DigitSelector+1)%1;
  4709  0381  01AC               	clrf	_DigitSelector
  4710  0382                     i1l343:
  4711  0382  0008               	return
  4712  0383                     __end_of_SSD_DigitSelector:
  4713                           
  4714                           	psect	text31
  4715  05EB                     __ptext31:	
  4716 ;; *************** function _Display_Minutes_Setting *****************
  4717 ;; Defined at:
  4718 ;;		line 81 in file "Display/Display.c"
  4719 ;; Parameters:    Size  Location     Type
  4720 ;;		None
  4721 ;; Auto vars:     Size  Location     Type
  4722 ;;		None
  4723 ;; Return value:  Size  Location     Type
  4724 ;;                  1    wreg      void 
  4725 ;; Registers used:
  4726 ;;		None
  4727 ;; Tracked objects:
  4728 ;;		On entry : 0/0
  4729 ;;		On exit  : 0/0
  4730 ;;		Unchanged: 0/0
  4731 ;; Data sizes:     COMMON   BANK0   BANK1   BANK3   BANK2
  4732 ;;      Params:         0       0       0       0       0
  4733 ;;      Locals:         0       0       0       0       0
  4734 ;;      Temps:          0       0       0       0       0
  4735 ;;      Totals:         0       0       0       0       0
  4736 ;;Total ram usage:        0 bytes
  4737 ;; Hardware stack levels used:    1
  4738 ;; This function calls:
  4739 ;;		Nothing
  4740 ;; This function is called by:
  4741 ;;		_Display_Update
  4742 ;; This function uses a non-reentrant model
  4743 ;;
  4744                           
  4745                           
  4746                           ;psect for function _Display_Minutes_Setting
  4747  05EB                     _Display_Minutes_Setting:
  4748  05EB                     i1l192:	
  4749                           ;incstack = 0
  4750                           ; Regs used in _Display_Minutes_Setting: []
  4751                           
  4752  05EB  0008               	return
  4753  05EC                     __end_of_Display_Minutes_Setting:
  4754                           
  4755                           	psect	text32
  4756  05EC                     __ptext32:	
  4757 ;; *************** function _Display_Hour_Setting *****************
  4758 ;; Defined at:
  4759 ;;		line 74 in file "Display/Display.c"
  4760 ;; Parameters:    Size  Location     Type
  4761 ;;		None
  4762 ;; Auto vars:     Size  Location     Type
  4763 ;;		None
  4764 ;; Return value:  Size  Location     Type
  4765 ;;                  1    wreg      void 
  4766 ;; Registers used:
  4767 ;;		None
  4768 ;; Tracked objects:
  4769 ;;		On entry : 0/0
  4770 ;;		On exit  : 0/0
  4771 ;;		Unchanged: 0/0
  4772 ;; Data sizes:     COMMON   BANK0   BANK1   BANK3   BANK2
  4773 ;;      Params:         0       0       0       0       0
  4774 ;;      Locals:         0       0       0       0       0
  4775 ;;      Temps:          0       0       0       0       0
  4776 ;;      Totals:         0       0       0       0       0
  4777 ;;Total ram usage:        0 bytes
  4778 ;; Hardware stack levels used:    1
  4779 ;; This function calls:
  4780 ;;		Nothing
  4781 ;; This function is called by:
  4782 ;;		_Display_Update
  4783 ;; This function uses a non-reentrant model
  4784 ;;
  4785                           
  4786                           
  4787                           ;psect for function _Display_Hour_Setting
  4788  05EC                     _Display_Hour_Setting:
  4789  05EC                     i1l189:	
  4790                           ;incstack = 0
  4791                           ; Regs used in _Display_Hour_Setting: []
  4792                           
  4793  05EC  0008               	return
  4794  05ED                     __end_of_Display_Hour_Setting:
  4795                           
  4796                           	psect	text33
  4797  05E9                     __ptext33:	
  4798 ;; *************** function _EXTI_SettingButton_CB *****************
  4799 ;; Defined at:
  4800 ;;		line 45 in file "Buttons/Buttons.c"
  4801 ;; Parameters:    Size  Location     Type
  4802 ;;		None
  4803 ;; Auto vars:     Size  Location     Type
  4804 ;;		None
  4805 ;; Return value:  Size  Location     Type
  4806 ;;                  1    wreg      void 
  4807 ;; Registers used:
  4808 ;;		None
  4809 ;; Tracked objects:
  4810 ;;		On entry : 0/0
  4811 ;;		On exit  : 0/0
  4812 ;;		Unchanged: 0/0
  4813 ;; Data sizes:     COMMON   BANK0   BANK1   BANK3   BANK2
  4814 ;;      Params:         0       0       0       0       0
  4815 ;;      Locals:         0       0       0       0       0
  4816 ;;      Temps:          0       0       0       0       0
  4817 ;;      Totals:         0       0       0       0       0
  4818 ;;Total ram usage:        0 bytes
  4819 ;; Hardware stack levels used:    1
  4820 ;; This function calls:
  4821 ;;		Nothing
  4822 ;; This function is called by:
  4823 ;;		_ISR
  4824 ;; This function uses a non-reentrant model
  4825 ;;
  4826                           
  4827                           
  4828                           ;psect for function _EXTI_SettingButton_CB
  4829  05E9                     _EXTI_SettingButton_CB:
  4830  05E9                     i1l1368:	
  4831                           ;incstack = 0
  4832                           ; Regs used in _EXTI_SettingButton_CB: []
  4833                           
  4834                           
  4835                           ;Buttons/Buttons.c: 47:     ButtonsFlag.SettingButton_Flag=1;
  4836  05E9  157C               	bsf	_ButtonsFlag,2
  4837  05EA                     i1l97:
  4838  05EA  0008               	return
  4839  05EB                     __end_of_EXTI_SettingButton_CB:
  4840  000A                     
  4841                           	psect	functab
  4842  0025                     __pfunctab:
  4843  0025                     fptable:
  4844  0025  2825               	goto	fptable	;no entries
  4845  0026                     __i1fptable:
  4846  0026                     i1fptable:
  4847  0026  00FF               	movwf	(btemp+1)& (0+127)
  4848  0027  3000               	movlw	high i1fptable
  4849  0028  008A               	movwf	10
  4850  0029  087F               	movf	(btemp+1)& (0+127),w
  4851  002A  0782               	addwf	2,f
  4852  002B                     i1fpbase:
  4853  002B  282B               	goto	i1fpbase	; Call via a null pointer and you will get stuck here.
  4854  002C                     fp__EXTI_SettingButton_CB:
  4855  002C  120A  118A  2DE9   	ljmp	_EXTI_SettingButton_CB
  4856  002F                     fp__Scheduler_Task3:
  4857  002F  120A  118A  2DC0   	ljmp	_Scheduler_Task3
  4858  0032                     fp__Scheduler_Task1:
  4859  0032  120A  118A  2DB4   	ljmp	_Scheduler_Task1
  4860  0035                     fp__Scheduler_Task2:
  4861  0035  120A  118A  2DCC   	ljmp	_Scheduler_Task2
  4862  0038                     fp__Timer0_CB:
  4863  0038  120A  118A  2D5A   	ljmp	_Timer0_CB
  4864  003B                     __end_of__i1fptable:
  4865  007E                     btemp	set	126	;btemp
  4866  007E                     wtemp0	set	126
  4867                           
  4868                           	psect	config
  4869                           
  4870                           ;Config register CONFIG @ 0x2007
  4871                           ;	Oscillator Selection bits
  4872                           ;	FOSC = HS, HS oscillator
  4873                           ;	Watchdog Timer Enable bit
  4874                           ;	WDTE = OFF, WDT disabled
  4875                           ;	Power-up Timer Enable bit
  4876                           ;	PWRTE = OFF, PWRT disabled
  4877                           ;	Brown-out Reset Enable bit
  4878                           ;	BOREN = OFF, BOR disabled
  4879                           ;	Low-Voltage (Single-Supply) In-Circuit Serial Programming Enable bit
  4880                           ;	LVP = OFF, RB3 is digital I/O, HV on MCLR must be used for programming
  4881                           ;	Data EEPROM Memory Code Protection bit
  4882                           ;	CPD = OFF, Data EEPROM code protection off
  4883                           ;	Flash Program Memory Write Enable bits
  4884                           ;	WRT = OFF, Write protection off; all program memory may be written to by EECON control
  4885                           ;	In-Circuit Debugger Mode bit
  4886                           ;	DEBUG = 0x1, unprogrammed default
  4887                           ;	Flash Program Memory Code Protection bit
  4888                           ;	CP = OFF, Code protection off
  4889  2007                     	org	8199
  4890  2007  3F3A               	dw	16186

Data Sizes:
    Strings     0
    Constant    11
    Data        0
    BSS         26
    Persistent  0
    Stack       0

Auto Spaces:
    Space          Size  Autos    Used
    COMMON           14     11      14
    BANK0            80     23      46
    BANK1            80      0       0
    BANK3            96      0       0
    BANK2            96      0       0

Pointer List with Targets:

    memset@p1	PTR void  size(1) Largest target is 3
		 -> Debounce_DownButton(BANK0[3]), Debounce_UpButton(BANK0[3]), Task_Flag(BANK0[3]), 

    memset@p	PTR unsigned char  size(1) Largest target is 3
		 -> Debounce_DownButton(BANK0[3]), Debounce_UpButton(BANK0[3]), Task_Flag(BANK0[3]), 

    S339Interrupt_CbStruct_T$EXTI_CB	PTR FTN()void  size(1) Largest target is 1
		 -> EXTI_SettingButton_CB(), 

    Interrupt_CbStruct.EXTI_CB	PTR FTN()void  size(1) Largest target is 1
		 -> EXTI_SettingButton_CB(), 

    S339Interrupt_CbStruct_T$Timer_CB	PTR FTN()void  size(1) Largest target is 1
		 -> Timer0_CB(), 

    Interrupt_CbStruct.Timer_CB	PTR FTN()void  size(1) Largest target is 1
		 -> Timer0_CB(), 

    S94Tasks_T$Task	PTR FTN()void  size(1) Largest target is 1
		 -> Scheduler_Task3(), Scheduler_Task2(), Scheduler_Task1(), 

    Tasks.Task	PTR FTN()void  size(1) Largest target is 1
		 -> Scheduler_Task3(), Scheduler_Task2(), Scheduler_Task1(), 

    sp__memset	PTR void  size(1) Largest target is 3
		 -> Debounce_DownButton(BANK0[3]), Debounce_UpButton(BANK0[3]), Task_Flag(BANK0[3]), 


Critical Paths under _main in COMMON

    None.

Critical Paths under _ISR in COMMON

    _Scheduler_Update->___llmod
    ___llmod->___bmul
    _Scheduler_Task3->_Clock_Update
    _Buttons_Update->i1___awmod
    _Scheduler_Task1->_Display_Update
    _Display_Normal->_SSD_Display

Critical Paths under _main in BANK0

    _main->_Display_Init
    _Scheduler_Init->_memset
    _Display_Init->___awdiv
    _Buttons_Init->_memset

Critical Paths under _ISR in BANK0

    _Timer0_CB->_Scheduler_Update
    _Scheduler_Update->___llmod

Critical Paths under _main in BANK1

    None.

Critical Paths under _ISR in BANK1

    None.

Critical Paths under _main in BANK3

    None.

Critical Paths under _ISR in BANK3

    None.

Critical Paths under _main in BANK2

    None.

Critical Paths under _ISR in BANK2

    None.

Call Graph Tables:

 ---------------------------------------------------------------------------------
 (Depth) Function   	        Calls       Base Space   Used Autos Params    Refs
 ---------------------------------------------------------------------------------
 (0) _main                                                 0     0      0    3174
                       _Buttons_Init
                         _Clock_Init
                       _Display_Init
                          _GPIO_Init
                   _ModeManager_Init
                     _Scheduler_Init
                         _Timer_Init
                        _Timer_Start
 ---------------------------------------------------------------------------------
 (1) _Timer_Start                                          0     0      0       0
 ---------------------------------------------------------------------------------
 (1) _Timer_Init                                           0     0      0       0
 ---------------------------------------------------------------------------------
 (1) _Scheduler_Init                                       0     0      0     935
                             _memset
 ---------------------------------------------------------------------------------
 (1) _ModeManager_Init                                     0     0      0       0
 ---------------------------------------------------------------------------------
 (1) _GPIO_Init                                            0     0      0       0
 ---------------------------------------------------------------------------------
 (1) _Display_Init                                         2     2      0    1304
                                             21 BANK0      2     2      0
                            ___awdiv
                            ___awmod
 ---------------------------------------------------------------------------------
 (2) ___awmod                                              6     2      4     700
                                             13 BANK0      6     2      4
 ---------------------------------------------------------------------------------
 (2) ___awdiv                                              8     4      4     604
                                             13 BANK0      8     4      4
 ---------------------------------------------------------------------------------
 (1) _Clock_Init                                           0     0      0       0
 ---------------------------------------------------------------------------------
 (1) _Buttons_Init                                         0     0      0     935
                             _memset
 ---------------------------------------------------------------------------------
 (2) _memset                                               6     2      4     935
                                             13 BANK0      6     2      4
 ---------------------------------------------------------------------------------
 Estimated maximum stack depth 2
 ---------------------------------------------------------------------------------
 (Depth) Function   	        Calls       Base Space   Used Autos Params    Refs
 ---------------------------------------------------------------------------------
 (3) _ISR                                                  4     4      0     969
                                              9 BANK0      4     4      0
              _EXTI_SettingButton_CB *
                          _Timer0_CB *
 ---------------------------------------------------------------------------------
 (4) _Timer0_CB                                            0     0      0     969
                   _Scheduler_Update
 ---------------------------------------------------------------------------------
 (5) _Scheduler_Update                                     7     7      0     969
                                              2 BANK0      7     7      0
                    _Scheduler_Task1 *
                    _Scheduler_Task2 *
                    _Scheduler_Task3 *
                             ___bmul
                            ___llmod
 ---------------------------------------------------------------------------------
 (6) ___llmod                                             10     2      8      49
                                              3 COMMON     8     0      8
                                              0 BANK0      2     2      0
                             ___bmul (ARG)
 ---------------------------------------------------------------------------------
 (6) ___bmul                                               3     2      1     206
                                              0 COMMON     3     2      1
 ---------------------------------------------------------------------------------
 (6) _Scheduler_Task3                                      0     0      0       0
                       _Clock_Update
 ---------------------------------------------------------------------------------
 (7) _Clock_Update                                         2     2      0       0
                                              0 COMMON     2     2      0
                 _Clock_Hour_Setting
              _Clock_Minutes_Setting
                       _Clock_Normal
 ---------------------------------------------------------------------------------
 (8) _Clock_Normal                                         0     0      0       0
 ---------------------------------------------------------------------------------
 (8) _Clock_Minutes_Setting                                0     0      0       0
 ---------------------------------------------------------------------------------
 (8) _Clock_Hour_Setting                                   0     0      0       0
 ---------------------------------------------------------------------------------
 (6) _Scheduler_Task2                                      0     0      0     503
                     _Buttons_Update
                 _ModeManager_Update
 ---------------------------------------------------------------------------------
 (7) _ModeManager_Update                                   2     2      0       0
                                              0 COMMON     2     2      0
 ---------------------------------------------------------------------------------
 (7) _Buttons_Update                                       0     0      0     503
                          i1___awmod
 ---------------------------------------------------------------------------------
 (8) i1___awmod                                            6     2      4     503
                                              0 COMMON     6     2      4
 ---------------------------------------------------------------------------------
 (6) _Scheduler_Task1                                      0     0      0      31
                     _Display_Update
 ---------------------------------------------------------------------------------
 (7) _Display_Update                                       2     2      0      31
                                              3 COMMON     2     2      0
               _Display_Hour_Setting
            _Display_Minutes_Setting
                     _Display_Normal
 ---------------------------------------------------------------------------------
 (8) _Display_Normal                                       0     0      0      31
                  _SSD_DigitSelector
                        _SSD_Display
 ---------------------------------------------------------------------------------
 (9) _SSD_Display                                          3     3      0      31
                                              0 COMMON     3     3      0
 ---------------------------------------------------------------------------------
 (9) _SSD_DigitSelector                                    2     2      0       0
                                              0 COMMON     2     2      0
 ---------------------------------------------------------------------------------
 (8) _Display_Minutes_Setting                              0     0      0       0
 ---------------------------------------------------------------------------------
 (8) _Display_Hour_Setting                                 0     0      0       0
 ---------------------------------------------------------------------------------
 (4) _EXTI_SettingButton_CB                                0     0      0       0
 ---------------------------------------------------------------------------------
 Estimated maximum stack depth 9
 ---------------------------------------------------------------------------------

 Call Graph Graphs:

 _main (ROOT)
   _Buttons_Init
     _memset
   _Clock_Init
   _Display_Init
     ___awdiv
     ___awmod
   _GPIO_Init
   _ModeManager_Init
   _Scheduler_Init
     _memset
   _Timer_Init
   _Timer_Start

 _ISR (ROOT)
   _EXTI_SettingButton_CB *
   _Timer0_CB *
     _Scheduler_Update
       _Scheduler_Task1 *
         _Display_Update
           _Display_Hour_Setting
           _Display_Minutes_Setting
           _Display_Normal
             _SSD_DigitSelector
             _SSD_Display
       _Scheduler_Task2 *
         _Buttons_Update
           i1___awmod
         _ModeManager_Update
       _Scheduler_Task3 *
         _Clock_Update
           _Clock_Hour_Setting
           _Clock_Minutes_Setting
           _Clock_Normal
       ___bmul *
       ___llmod *
         ___bmul (ARG)

 Address spaces:
Name               Size   Autos  Total    Cost      Usage
BITCOMMON            E      0       0       0        0.0%
EEDATA             100      0       0       0        0.0%
NULL                 0      0       0       0        0.0%
CODE                 0      0       0       0        0.0%
COMMON               E      B       E       1      100.0%
BITSFR0              0      0       0       1        0.0%
SFR0                 0      0       0       1        0.0%
BITSFR1              0      0       0       2        0.0%
SFR1                 0      0       0       2        0.0%
STACK                0      0       0       2        0.0%
ABS                  0      0      3C       3        0.0%
BITBANK0            50      0       0       4        0.0%
BITSFR3              0      0       0       4        0.0%
SFR3                 0      0       0       4        0.0%
BANK0               50     17      2E       5       57.5%
BITSFR2              0      0       0       5        0.0%
SFR2                 0      0       0       5        0.0%
BITBANK1            50      0       0       6        0.0%
BANK1               50      0       0       7        0.0%
BITBANK3            60      0       0       8        0.0%
BANK3               60      0       0       9        0.0%
BITBANK2            60      0       0      10        0.0%
BANK2               60      0       0      11        0.0%
DATA                 0      0      3C      12        0.0%


Microchip Technology PIC Macro Assembler V2.20 build 20200408173844 
Symbol Table                                                                                   Tue Jul 21 22:42:15 2020

                               pc 0002                    ___bmul@product 0071                                l30 043F  
                              l43 05A5                                l29 043F                                l64 05B3  
                              l67 05E6                                l87 04FB                      ___awdiv@sign 0049  
                              fsr 0004                               l111 0521                               l107 051E  
                             l212 05E8                               l142 053B                               l173 00A5  
                             l610 022B                               l291 05E4                               l597 010E  
                             l898 051D                               _ISR 03B7                               u970 00AD  
                             u971 00AC                               u980 00B8                               u981 00B7  
                             u990 00C9                               u991 00C8                               fsr0 0004  
                             indf 0000                      ___awmod@sign 0049                              ?_ISR 0070  
                            l2310 04FF                              l2312 0504                              l2314 050B  
                            l2316 050F                              l2332 04D9                              l2334 04F9  
                            l2350 042B            ?_Clock_Minutes_Setting 0070                              l2336 04FA  
                            l1800 00F2                              l2352 0430                              l2344 0417  
                            l1810 010A                              l1802 00F3                              l2338 0596  
                            l2354 0435                              l2346 0421                              l1804 00FA  
                            l1820 01DD                              l1900 05B2                              l2356 043A  
                            l2348 0426                              l1806 0100                              l1830 01F1  
                            l1822 01DF                              l1814 01D1                              l1808 0105  
                            l1840 0210                              l1832 01F8                              l1824 01E3  
                            l1816 01D4                              l1904 05E5                              l1770 00A6  
                            l1842 0217                              l1834 01FC                              l1826 01E8  
                            l1818 01D8                              l1780 00B8                              l1772 00A9  
                            l1836 0200                              l1828 01EE                              l1844 021D  
                            l1860 0526                              l1852 051E                              l1790 00CC  
                            l1782 00BD                              l1774 00AD                              l1846 0222  
                            l1838 020A                              l1870 0533                              l1862 052A  
                            l1792 00D3                              l1784 00C1                              l1776 00B2  
                            l1848 0227                              l1880 009D                              l1872 0537  
                            l1864 052E                              l1794 00D7                              l1786 00C3  
                            l1778 00B4                              l1882 00A1                              l1874 003B  
                            l1866 0532                              l1858 0522                              l1884 05DF  
                            l1796 00DB                              l1788 00C9                              l1876 0095  
                            l1798 00EC                              l1878 0099                              l1886 05E7  
                            l1894 05A6                              l1896 05AD                              l1898 05B1  
                            u1010 00DB                              u1011 00DA                              u1005 00CD  
                            u1030 00EC                              u1110 0200                              u1031 00EB  
                            u1111 01FF                              u1120 020A                              u1025 00DC  
                            u1121 0209                              u1105 01F2                              u1050 0100  
                            u1051 00FF                              u1035 00E8                              u1060 0105  
                            u1140 021D                              u1061 0104                              u1045 00F4  
                            u1141 021C                              u1125 0206                              u1150 0222  
                            u1070 01D8                              u1151 0221                              u1135 0211  
                            u1071 01D7                              u1080 01E3                              u1081 01E2  
                            u1090 01EE                              u1091 01ED                              u1590 051D  
                            u1591 051C                              _MODE 007D                              i1l70 056F  
                            i1l49 0173                              i1l94 0330                              i1l97 05EA  
                            _TMR0 0001                              _Tick 0020                              _main 0417  
                            btemp 007E                              start 0012                __size_of_GPIO_Init 001E  
               ___bmul@multiplier 0072                  ??_Scheduler_Init 004A                             ??_ISR 0040  
                      _Clock_Init 05DF              __end_of_Clock_Normal 04B5              __end_of_Clock_Update 046A  
                           ?_main 0070                   __end_of___awdiv 010F                   __end_of___awmod 022C  
                 ___awdiv@divisor 0044                   __end_of___llmod 02DB                             i1l221 04D8  
                           i1l217 04BA                             i1l305 04B4                             i1l241 03DC  
                           i1l218 04D7                             i1l315 0416                             i1l308 0400  
                           i1l181 0490                             i1l325 03B6                             i1l318 039E  
                           i1l270 05BF                             i1l238 03CB                             i1l343 0382  
                           i1l192 05EB                             i1l273 05D6                             i1l338 0337  
                           i1l186 0559                             i1l610 0284                             i1l276 05CB  
                           i1l189 05EC                             i1l358 01D0                             i1l470 0584  
                           i1l299 0469                             i1l666 02DA                   ___awdiv@counter 0048  
                           _PORTA 0005                             _PORTB 0006                             _PORTD 0008  
                           _TRISA 0085                             _TRISB 0086                             _TRISD 0088  
                           _Clock 0024                  _ModeManager_Init 05E7                             _Tasks 058B  
                  i1___awmod@sign 0075        __end_of_ModeManager_Update 04D9                             _value 0027  
                           fpbase 0000                     ?_Buttons_Init 0070                             pclath 000A  
                           status 0003                             wtemp0 007E                __size_ofi1___awmod 0059  
         __size_of_Buttons_Update 0056                   __initialization 0015                 ??_Scheduler_Task1 0075  
               ??_Scheduler_Task2 0076                 ??_Scheduler_Task3 0072                      __end_of_main 0443  
  Buttons_Update@Debounce_Counter 007B          ?_Display_Minutes_Setting 0070                            ??_main 004E  
               __end_of_GPIO_Init 053C              __end_of_Display_Init 00A6                  ___llmod@dividend 0077  
                ___awdiv@dividend 0046                    ??_Buttons_Init 004A                 SSD_Display@Number 0072  
                          i1l2100 0497                            i1l2110 04AC                            i1l2102 049D  
                          i1l2040 017B                            i1l2200 0309                            i1l2120 03F1  
                          i1l2112 04AD                            i1l2104 04A1                            i1l2050 0194  
                          i1l2042 0180                            i1l2210 0324                            i1l2202 030E  
                          i1l2130 040F                            i1l2122 03F9                            i1l2114 04B3  
                          i1l2106 04A2                            i1l2052 0199                            i1l2044 0185  
                          i1l2060 01A8                            i1l2036 0175                            i1l2220 0477  
                          i1l2212 0329                            i1l2204 0313                            i1l2132 0414  
                          i1l2124 03FB                            i1l2116 03E9                            i1l2140 0393  
                          i1l2108 04A8                            i1l2070 0338                            i1l2054 019E  
                          i1l2046 018A                            i1l2038 0176                            i1l2214 046A  
                          i1l2206 031A                            i1l2230 04B5                            i1l2126 0404  
                          i1l2118 03ED                            i1l2150 03AD                            i1l2142 0397  
                          i1l2134 0383                            i1l2072 0344                            i1l2080 0369  
                          i1l2056 01A3                            i1l2048 018F                            i1l2216 046B  
                          i1l2224 047D                            i1l2160 0231                            i1l2208 031F  
                          i1l2240 04C4                            i1l2128 0408                            i1l2152 03AF  
                          i1l2144 0399                            i1l2136 0387                            u120_20 049D  
                          u120_21 049C                            i1l2082 0381                            i1l2074 0351  
                          i1l2066 0331                            i1l2090 0542                            i1l2218 0471  
                          i1l2170 0247                            i1l2162 0236                            i1l2234 04BD  
                          i1l2154 03B4                            i1l2146 03A2                            i1l2138 038B  
                          i1l2250 044A                            i1l2076 035E                            i1l2092 0547  
                          i1l2180 0263                            i1l2172 024A                            i1l2164 0238  
                          i1l2156 022C                            i1l2236 04C2                            i1l2148 03A6  
                          i1l2252 0450                            i1l2500 014F                            i1l2078 035F  
                          i1l2094 054E                            i1l2190 0280                            i1l2182 0269  
                          i1l2174 0251                            i1l2166 023C                            i1l2158 022D  
                          i1l2246 0443                            i1l2270 05C6                            i1l2262 05B4  
                          i1l2502 0167                            i1l2510 03B7                            i1l1368 05E9  
                          i1l2096 0554                            i1l2088 053C                            i1l2184 0270  
                          i1l2176 0255                            i1l2168 0241                            u121_20 04A8  
                          i1l2248 0444                            i1l2256 0456                            i1l2264 05B9  
                          i1l2280 057C                            i1l2272 0571                            i1l2504 016D  
                          i1l2520 03D0                            i1l2512 03BB                            u121_21 04A7  
                          i1l2178 0259                            i1l2186 0276                            i1l2194 02DB  
                          i1l2098 0491                            i1l2266 05CC                            i1l2282 057E  
                          i1l2274 0572                            i1l2506 055A                            i1l2514 03BD  
                          i1l2188 027B                            i1l2196 02EE                            i1l2268 05C0  
                          i1l2284 0583                            i1l2276 0576                            i1l2508 056A  
                          i1l2516 03BE                            i1l2630 0373                            i1l2198 0302  
                          i1l2622 045E                            i1l2278 057A                            i1l2470 0285  
                          i1l2518 03CF                            i1l2624 04CC                            u130_20 038B  
                          u122_20 04B3                            i1l2480 02A3                            i1l2472 028D  
                          u130_21 038A                            u122_21 04B2                            i1l2626 0485  
                          i1l2482 02B5                            i1l2474 0292                            i1l2628 01B0  
                          i1l2484 02C3                            i1l2476 029B                            i1l2492 010F  
                          i1l2486 02CC                            i1l2478 029F                            u123_20 03ED  
                          u131_20 0393                            i1l2488 02D2                            u123_21 03EC  
                          u131_21 0392                            i1l2498 0112                            u140_20 0263  
                          u124_20 03F1                            u132_20 03A2                            u140_21 0262  
                          u124_21 03F0                            u132_21 03A1                            u140_25 025F  
                          u125_20 03F9                            u133_20 03A6                            u125_21 03F8  
                          u133_21 03A5                            u141_25 026A                            u118_20 0336  
                          u142_20 0276                            u150_20 04B9                            u126_20 0404  
                          u134_20 03AD                            u118_21 0335                            u142_21 0275  
                          u150_21 04B8                            u126_21 0403                            u134_21 03AC  
                          u119_20 0547                            u143_20 027B                            u135_20 0231  
                          u127_20 0408                            u151_20 0576                            u119_21 0546  
                          u143_21 027A                            u135_21 0230                            u127_21 0407  
                          u151_21 0575                            u136_20 023C                            u144_20 0309  
                          u128_20 040F                            u152_20 0583                            u136_21 023B  
                          u144_21 0308                            u128_21 040E                            u152_21 0582  
                          u137_20 0247                            u145_20 030E                            u129_20 0387  
                          u137_21 0246                            u145_21 030D                            u129_21 0386  
                          u146_20 0313                            u170_20 014F                            u146_21 0312  
                          u170_21 014E                            u138_25 024B                            u139_20 0259  
                          u147_20 031F                            u171_20 0173                            u139_21 0258  
                          u147_21 031E                            u171_21 0172                            u148_20 0324  
                          u164_20 028D                            u172_20 03BB                            u148_21 0323  
                          u164_21 028C                            u172_21 03BA                            u149_20 0329  
                          u173_20 03CF                            u149_21 0328                            u173_21 03CE  
                          u165_25 0294                            u166_20 02A3                            u166_21 02A2  
                          u167_20 02B5                            u167_21 02B4                            u167_25 02B1  
                          u168_25 02C4                            u169_20 02D2                            u169_21 02D1  
                      __i1fptable 0026                            _TMR0IF 005A             _EXTI_SettingButton_CB 05E9  
                          _Digit1 002B                            _Digit2 002A                            _Digit3 0029  
                          _Digit4 0028      __end_of_Display_Hour_Setting 05ED                            ___bmul 0570  
                       ??___awdiv 0048                         ??___awmod 0048                         ??___llmod 0037  
                      _Timer_Init 05A6                       ?_Clock_Init 0070                            _memset 04FC  
                ___awdiv@quotient 004A                   ___awmod@divisor 0044                __size_of_Timer0_CB 0016  
                 ___awmod@counter 0048                     ??_Timer_Start 0044                 __end_ofi1___awmod 0285  
                          fptable 0025                            fptotal 0000                            saved_w 007E  
         __end_of__initialization 0021               ___bmul@multiplicand 0070             __size_of_Clock_Normal 0024  
                    ?_SSD_Display 0070             __size_of_Clock_Update 0027                    __pcstackCOMMON 0070  
               ?_Scheduler_Update 0070                     __end_of_Tasks 0594   __end_of_Display_Minutes_Setting 05EC  
              ??_Scheduler_Update 0039                       _ButtonsFlag 007C       __size_of_Clock_Hour_Setting 002E  
                  _OPTION_REGbits 0081           ??_Clock_Minutes_Setting 0070               __end_of_Timer_Start 05E7  
                      __pbssBANK0 0020                      _Clock_Normal 0491               __size_of_Clock_Init 0006  
          ?_EXTI_SettingButton_CB 0070                      _Clock_Update 0443                 __end_of_Timer0_CB 0570  
                  _Buttons_Update 02DB          __end_of_ModeManager_Init 05E9                        __pmaintext 0417  
                         ?___bmul 0070                        __pintentry 0004                       ?_Timer_Init 0070  
            __end_of_Buttons_Init 04FC                           ?_memset 0044             __size_of_Display_Init 006B  
            _Display_Hour_Setting 05EC                        __stringtab 0585                   _Scheduler_Task1 05B4  
                 _Scheduler_Task2 05CC                   _Scheduler_Task3 05C0                 Scheduler_Update@i 003F  
                         i1fpbase 002B                           _Display 002D            __end_of_Buttons_Update 0331  
              _ModeManager_Update 04B5                      _Display_Init 003B                   __size_of___bmul 0015  
                         ___awdiv 00A6                           ___awmod 01D1                           ___llmod 0285  
             ?_ModeManager_Update 0070                   __size_of_memset 0022                           __ptext1 05E5  
                         __ptext2 05A6                           __ptext3 0596                           __ptext4 05E7  
                         __ptext5 051E                           __ptext6 003B                           __ptext7 01D1  
                         __ptext8 00A6                           __ptext9 05DF           __size_of_Display_Normal 001E  
             __size_of__i1fptable 0015           __size_of_Display_Update 0027                      __size_of_ISR 0032  
                     _Timer_Start 05E5                  ___awmod@dividend 0046             ?_Display_Hour_Setting 0070  
                         clrloop0 05D8                         _GPIO_Init 051E              end_of_initialization 0021  
            ??_ModeManager_Update 0070  __size_of_Display_Minutes_Setting 0001               __size_of_Timer_Init 000E  
                         memset@c 0044                           memset@n 0046                           memset@p 0048  
                 ?_Buttons_Update 0070              __size_of_SSD_Display 005D                      ??_Clock_Init 0044  
         __size_of_Scheduler_Init 0010           __end_of_Scheduler_Task1 05C0           __end_of_Scheduler_Task2 05D7  
         __end_of_Scheduler_Task3 05CC                         i1___awmod 022C                        ?_GPIO_Init 0070  
              __end_of_Clock_Init 05E5             __size_of_Buttons_Init 0023                     _DigitSelector 002C  
                  __end_of___bmul 0585                    __end_of_memset 051E               start_initialization 0015  
          ??_Display_Hour_Setting 0070                       __end_of_ISR 03E9         __size_of_Scheduler_Update 0065  
                      ?i1___awmod 0070           ??_EXTI_SettingButton_CB 0070    __size_of_Clock_Minutes_Setting 0034  
   __end_of_Clock_Minutes_Setting 03B7                      _Buttons_Init 04D9                   ___llmod@divisor 0073  
                 ___llmod@counter 0038                         _Task_Flag 0034                         _Timer0_CB 055A  
               ?_ModeManager_Init 0070                          ??___bmul 0071                      ??_Timer_Init 0044  
              ??_ModeManager_Init 0044                i1___awmod@dividend 0072                          ??_memset 0048  
      __end_of_Clock_Hour_Setting 0417                    _Display_Normal 053C                    _Display_Update 046A  
              __end_of__i1fptable 003B                       __pbssCOMMON 007B                         ___latbits 0002  
                   __pcstackBANK0 0037                  ?_Scheduler_Task1 0070                  ?_Scheduler_Task2 0070  
                ?_Scheduler_Task3 0070           _Display_Minutes_Setting 05EB                       ??_GPIO_Init 0044  
              __end_of_Timer_Init 05B4                        ?_Timer0_CB 0070        __end_of_Interrupt_CbStruct 0596  
                       __pfunctab 0025                          ?___awdiv 0044                          ?___awmod 0044  
                        ?___llmod 0073            __end_of_Display_Normal 055A                 _SSD_DigitSelector 0331  
          __end_of_Display_Update 0491                         __pstrings 0585                ?_SSD_DigitSelector 0070  
                    ?_Timer_Start 0070                    _Scheduler_Init 0596               ??_SSD_DigitSelector 0070  
                     ??i1___awmod 0074                  ??_Buttons_Update 0076                 interrupt_function 0004  
                       clear_ram0 05D7         __end_of_SSD_DigitSelector 0383                   ?_Display_Normal 0070  
                 ?_Display_Update 0070            __end_of_Scheduler_Init 05A6                       __stringbase 058A  
       ??_Display_Minutes_Setting 0070                 _Debounce_UpButton 0031                  _Scheduler_Update 010F  
                        i1fptable 0026                          i1fptotal 000A       __size_of_ModeManager_Update 0024  
                   ??_SSD_Display 0070                       ??_Timer0_CB 007B                 i1___awmod@divisor 0070  
               i1___awmod@counter 0074                  __size_of___awdiv 0069                  __size_of___awmod 005B  
                __size_of___llmod 0056                   ?_Scheduler_Init 0070                __end_of__stringtab 058B  
                        __ptext10 04D9                          __ptext11 04FC                          __ptext20 0443  
                        __ptext12 03B7                          __ptext21 0491                          __ptext13 055A  
                        __ptext30 0331                          __ptext22 0383                          __ptext14 010F  
                        __ptext31 05EB                          __ptext23 03E9                          __ptext15 0285  
                        __ptext32 05EC                          __ptext24 04B5                          __ptext16 0570  
                        __ptext33 05E9                          __ptext25 02DB                          __ptext17 05CC  
                        __ptext26 022C                          __ptext18 05B4                          __ptext27 046A  
                        __ptext19 05C0                          __ptext28 053C                          __ptext29 0174  
  __size_of_EXTI_SettingButton_CB 0002                     ?_Clock_Normal 0070     __end_of_EXTI_SettingButton_CB 05EB  
                   ?_Clock_Update 0070                     __size_of_main 002C        __size_of_SSD_DigitSelector 0052  
             __end_of_SSD_Display 01D1                        _INTCONbits 000B         __size_of_ModeManager_Init 0002  
            __size_of_Timer_Start 0002                          memset@p1 0049                      fp__Timer0_CB 0038  
   __size_of_Display_Hour_Setting 0001                _Clock_Hour_Setting 03E9                    ??_Clock_Normal 0070  
                  ??_Clock_Update 0070                          intlevel1 0025             _Clock_Minutes_Setting 0383  
             ?_Clock_Hour_Setting 0070                         stringcode 0585                     ?_Display_Init 0070  
            ??_Clock_Hour_Setting 0070                _Interrupt_CbStruct 0594                          stringdir 0585  
                        stringtab 0585          __size_of_Scheduler_Task1 000C          __size_of_Scheduler_Task2 000B  
        __size_of_Scheduler_Task3 000C                fp__Scheduler_Task1 0032                fp__Scheduler_Task2 0035  
              fp__Scheduler_Task3 002F               _Debounce_DownButton 002E          fp__EXTI_SettingButton_CB 002C  
                ??_Display_Normal 0073                  ??_Display_Update 0073                    ??_Display_Init 004C  
                     _SSD_Display 0174          __end_of_Scheduler_Update 0174  
