

Microchip MPLAB XC8 Assembler V2.20 build 20200408173844 
                                                                                               Tue Jul 21 03:26:44 2020

Microchip MPLAB XC8 C Compiler v2.20 (Free license) build 20200408173844 Og1 
     1                           	processor	16F877A
     2                           	pagewidth 120
     3                           	opt	flic
     4                           	psect	strings,global,class=STRING,delta=2,noexec
     5                           	psect	cinit,global,class=CODE,merge=1,delta=2
     6                           	psect	bssBANK0,global,class=BANK0,space=1,delta=1,noexec
     7                           	psect	clrtext,global,class=CODE,delta=2
     8                           	psect	cstackBANK1,global,class=BANK1,space=1,delta=1,noexec
     9                           	psect	cstackCOMMON,global,class=COMMON,space=1,delta=1,noexec
    10                           	psect	cstackBANK0,global,class=BANK0,space=1,delta=1,noexec
    11                           	psect	maintext,global,class=CODE,split=1,delta=2
    12                           	psect	text1,local,class=CODE,merge=1,delta=2
    13                           	psect	text2,local,class=CODE,merge=1,delta=2
    14                           	psect	text3,local,class=CODE,merge=1,delta=2
    15                           	psect	text4,local,class=CODE,merge=1,delta=2,group=1
    16                           	psect	text5,local,class=CODE,merge=1,delta=2
    17                           	psect	text6,local,class=CODE,merge=1,delta=2
    18                           	psect	text7,local,class=CODE,merge=1,delta=2
    19                           	psect	text8,local,class=CODE,merge=1,delta=2
    20                           	psect	text9,local,class=CODE,merge=1,delta=2
    21                           	psect	text10,local,class=CODE,merge=1,delta=2
    22                           	psect	text11,local,class=CODE,merge=1,delta=2
    23                           	psect	text12,local,class=CODE,merge=1,delta=2
    24                           	psect	text13,local,class=CODE,merge=1,delta=2
    25                           	psect	text14,local,class=CODE,merge=1,delta=2
    26                           	psect	text15,local,class=CODE,merge=1,delta=2
    27                           	psect	text16,local,class=CODE,merge=1,delta=2
    28                           	psect	text17,local,class=CODE,merge=1,delta=2
    29                           	psect	text18,local,class=CODE,merge=1,delta=2
    30                           	psect	text19,local,class=CODE,merge=1,delta=2
    31                           	psect	text20,local,class=CODE,merge=1,delta=2,group=2
    32                           	psect	text21,local,class=CODE,merge=1,delta=2
    33                           	psect	text22,local,class=CODE,merge=1,delta=2
    34                           	psect	text23,local,class=CODE,merge=1,delta=2
    35                           	psect	text24,local,class=CODE,merge=1,delta=2,group=1
    36                           	psect	text25,local,class=CODE,merge=1,delta=2,group=1
    37                           	psect	text26,local,class=CODE,merge=1,delta=2
    38                           	psect	text27,local,class=CODE,merge=1,delta=2
    39                           	psect	intentry,global,class=CODE,delta=2
    40                           	psect	text28,local,class=CODE,merge=1,delta=2
    41                           	psect	text29,local,class=CODE,merge=1,delta=2
    42                           	psect	text30,local,class=CODE,merge=1,delta=2
    43                           	psect	text31,local,class=CODE,merge=1,delta=2,group=1
    44                           	psect	text32,local,class=CODE,merge=1,delta=2,group=1
    45                           	psect	text33,local,class=CODE,merge=1,delta=2
    46                           	psect	functab,global,class=ENTRY,delta=2
    47                           	psect	config,global,abs,ovrld,class=CONFIG,space=4,delta=2,noexec
    48                           	dabs	1,0x7E,2
    49  0000                     
    50                           ; Version 2.20
    51                           ; Generated 12/02/2020 GMT
    52                           ; 
    53                           ; Copyright © 2020, Microchip Technology Inc. and its subsidiaries ("Microchip")
    54                           ; All rights reserved.
    55                           ; 
    56                           ; This software is developed by Microchip Technology Inc. and its subsidiaries ("Microch
      +                          ip").
    57                           ; 
    58                           ; Redistribution and use in source and binary forms, with or without modification, are
    59                           ; permitted provided that the following conditions are met:
    60                           ; 
    61                           ;     1. Redistributions of source code must retain the above copyright notice, this lis
      +                          t of
    62                           ;        conditions and the following disclaimer.
    63                           ; 
    64                           ;     2. Redistributions in binary form must reproduce the above copyright notice, this 
      +                          list
    65                           ;        of conditions and the following disclaimer in the documentation and/or other
    66                           ;        materials provided with the distribution.
    67                           ; 
    68                           ;     3. Microchip's name may not be used to endorse or promote products derived from th
      +                          is
    69                           ;        software without specific prior written permission.
    70                           ; 
    71                           ; THIS SOFTWARE IS PROVIDED BY MICROCHIP "AS IS" AND ANY EXPRESS OR IMPLIED WARRANTIES,
    72                           ; INCLUDING, BUT NOT LIMITED TO, THE IMPLIED WARRANTIES OF MERCHANTABILITY AND FITNESS F
      +                          OR
    73                           ; PURPOSE ARE DISCLAIMED.  IN NO EVENT SHALL MICROCHIP BE LIABLE FOR ANY DIRECT, INDIREC
      +                          T,
    74                           ; INCIDENTAL, SPECIAL, EXEMPLARY, OR CONSEQUENTIAL DAMAGES (INCLUDING BUT NOT LIMITED TO
    75                           ; PROCUREMENT OF SUBSTITUTE GOODS OR SERVICES; LOSS OF USE, DATA OR PROFITS; OR BUSINESS
    76                           ; INTERRUPTION) HOWSOEVER CAUSED AND ON ANY THEORY OF LIABILITY, WHETHER IN CONTRACT, ST
      +                          RICT
    77                           ; LIABILITY, OR TORT (INCLUDING NEGLIGENCE OR OTHERWISE) ARISING IN ANY WAY OUT OF THE U
      +                          SE OF
    78                           ; THIS SOFTWARE, EVEN IF ADVISED OF THE POSSIBILITY OF SUCH DAMAGE.
    79                           ; 
    80                           ; 
    81                           ; Code-generator required, PIC16F877A Definitions
    82                           ; 
    83                           ; SFR Addresses
    84  0000                     	;# 
    85  0001                     	;# 
    86  0002                     	;# 
    87  0003                     	;# 
    88  0004                     	;# 
    89  0005                     	;# 
    90  0006                     	;# 
    91  0007                     	;# 
    92  0008                     	;# 
    93  0009                     	;# 
    94  000A                     	;# 
    95  000B                     	;# 
    96  000C                     	;# 
    97  000D                     	;# 
    98  000E                     	;# 
    99  000E                     	;# 
   100  000F                     	;# 
   101  0010                     	;# 
   102  0011                     	;# 
   103  0012                     	;# 
   104  0013                     	;# 
   105  0014                     	;# 
   106  0015                     	;# 
   107  0015                     	;# 
   108  0016                     	;# 
   109  0017                     	;# 
   110  0018                     	;# 
   111  0019                     	;# 
   112  001A                     	;# 
   113  001B                     	;# 
   114  001B                     	;# 
   115  001C                     	;# 
   116  001D                     	;# 
   117  001E                     	;# 
   118  001F                     	;# 
   119  0081                     	;# 
   120  0085                     	;# 
   121  0086                     	;# 
   122  0087                     	;# 
   123  0088                     	;# 
   124  0089                     	;# 
   125  008C                     	;# 
   126  008D                     	;# 
   127  008E                     	;# 
   128  0091                     	;# 
   129  0092                     	;# 
   130  0093                     	;# 
   131  0094                     	;# 
   132  0098                     	;# 
   133  0099                     	;# 
   134  009C                     	;# 
   135  009D                     	;# 
   136  009E                     	;# 
   137  009F                     	;# 
   138  010C                     	;# 
   139  010D                     	;# 
   140  010E                     	;# 
   141  010F                     	;# 
   142  018C                     	;# 
   143  018D                     	;# 
   144  0000                     	;# 
   145  0001                     	;# 
   146  0002                     	;# 
   147  0003                     	;# 
   148  0004                     	;# 
   149  0005                     	;# 
   150  0006                     	;# 
   151  0007                     	;# 
   152  0008                     	;# 
   153  0009                     	;# 
   154  000A                     	;# 
   155  000B                     	;# 
   156  000C                     	;# 
   157  000D                     	;# 
   158  000E                     	;# 
   159  000E                     	;# 
   160  000F                     	;# 
   161  0010                     	;# 
   162  0011                     	;# 
   163  0012                     	;# 
   164  0013                     	;# 
   165  0014                     	;# 
   166  0015                     	;# 
   167  0015                     	;# 
   168  0016                     	;# 
   169  0017                     	;# 
   170  0018                     	;# 
   171  0019                     	;# 
   172  001A                     	;# 
   173  001B                     	;# 
   174  001B                     	;# 
   175  001C                     	;# 
   176  001D                     	;# 
   177  001E                     	;# 
   178  001F                     	;# 
   179  0081                     	;# 
   180  0085                     	;# 
   181  0086                     	;# 
   182  0087                     	;# 
   183  0088                     	;# 
   184  0089                     	;# 
   185  008C                     	;# 
   186  008D                     	;# 
   187  008E                     	;# 
   188  0091                     	;# 
   189  0092                     	;# 
   190  0093                     	;# 
   191  0094                     	;# 
   192  0098                     	;# 
   193  0099                     	;# 
   194  009C                     	;# 
   195  009D                     	;# 
   196  009E                     	;# 
   197  009F                     	;# 
   198  010C                     	;# 
   199  010D                     	;# 
   200  010E                     	;# 
   201  010F                     	;# 
   202  018C                     	;# 
   203  018D                     	;# 
   204  0000                     	;# 
   205  0001                     	;# 
   206  0002                     	;# 
   207  0003                     	;# 
   208  0004                     	;# 
   209  0005                     	;# 
   210  0006                     	;# 
   211  0007                     	;# 
   212  0008                     	;# 
   213  0009                     	;# 
   214  000A                     	;# 
   215  000B                     	;# 
   216  000C                     	;# 
   217  000D                     	;# 
   218  000E                     	;# 
   219  000E                     	;# 
   220  000F                     	;# 
   221  0010                     	;# 
   222  0011                     	;# 
   223  0012                     	;# 
   224  0013                     	;# 
   225  0014                     	;# 
   226  0015                     	;# 
   227  0015                     	;# 
   228  0016                     	;# 
   229  0017                     	;# 
   230  0018                     	;# 
   231  0019                     	;# 
   232  001A                     	;# 
   233  001B                     	;# 
   234  001B                     	;# 
   235  001C                     	;# 
   236  001D                     	;# 
   237  001E                     	;# 
   238  001F                     	;# 
   239  0081                     	;# 
   240  0085                     	;# 
   241  0086                     	;# 
   242  0087                     	;# 
   243  0088                     	;# 
   244  0089                     	;# 
   245  008C                     	;# 
   246  008D                     	;# 
   247  008E                     	;# 
   248  0091                     	;# 
   249  0092                     	;# 
   250  0093                     	;# 
   251  0094                     	;# 
   252  0098                     	;# 
   253  0099                     	;# 
   254  009C                     	;# 
   255  009D                     	;# 
   256  009E                     	;# 
   257  009F                     	;# 
   258  010C                     	;# 
   259  010D                     	;# 
   260  010E                     	;# 
   261  010F                     	;# 
   262  018C                     	;# 
   263  018D                     	;# 
   264  0000                     	;# 
   265  0001                     	;# 
   266  0002                     	;# 
   267  0003                     	;# 
   268  0004                     	;# 
   269  0005                     	;# 
   270  0006                     	;# 
   271  0007                     	;# 
   272  0008                     	;# 
   273  0009                     	;# 
   274  000A                     	;# 
   275  000B                     	;# 
   276  000C                     	;# 
   277  000D                     	;# 
   278  000E                     	;# 
   279  000E                     	;# 
   280  000F                     	;# 
   281  0010                     	;# 
   282  0011                     	;# 
   283  0012                     	;# 
   284  0013                     	;# 
   285  0014                     	;# 
   286  0015                     	;# 
   287  0015                     	;# 
   288  0016                     	;# 
   289  0017                     	;# 
   290  0018                     	;# 
   291  0019                     	;# 
   292  001A                     	;# 
   293  001B                     	;# 
   294  001B                     	;# 
   295  001C                     	;# 
   296  001D                     	;# 
   297  001E                     	;# 
   298  001F                     	;# 
   299  0081                     	;# 
   300  0085                     	;# 
   301  0086                     	;# 
   302  0087                     	;# 
   303  0088                     	;# 
   304  0089                     	;# 
   305  008C                     	;# 
   306  008D                     	;# 
   307  008E                     	;# 
   308  0091                     	;# 
   309  0092                     	;# 
   310  0093                     	;# 
   311  0094                     	;# 
   312  0098                     	;# 
   313  0099                     	;# 
   314  009C                     	;# 
   315  009D                     	;# 
   316  009E                     	;# 
   317  009F                     	;# 
   318  010C                     	;# 
   319  010D                     	;# 
   320  010E                     	;# 
   321  010F                     	;# 
   322  018C                     	;# 
   323  018D                     	;# 
   324  0000                     	;# 
   325  0001                     	;# 
   326  0002                     	;# 
   327  0003                     	;# 
   328  0004                     	;# 
   329  0005                     	;# 
   330  0006                     	;# 
   331  0007                     	;# 
   332  0008                     	;# 
   333  0009                     	;# 
   334  000A                     	;# 
   335  000B                     	;# 
   336  000C                     	;# 
   337  000D                     	;# 
   338  000E                     	;# 
   339  000E                     	;# 
   340  000F                     	;# 
   341  0010                     	;# 
   342  0011                     	;# 
   343  0012                     	;# 
   344  0013                     	;# 
   345  0014                     	;# 
   346  0015                     	;# 
   347  0015                     	;# 
   348  0016                     	;# 
   349  0017                     	;# 
   350  0018                     	;# 
   351  0019                     	;# 
   352  001A                     	;# 
   353  001B                     	;# 
   354  001B                     	;# 
   355  001C                     	;# 
   356  001D                     	;# 
   357  001E                     	;# 
   358  001F                     	;# 
   359  0081                     	;# 
   360  0085                     	;# 
   361  0086                     	;# 
   362  0087                     	;# 
   363  0088                     	;# 
   364  0089                     	;# 
   365  008C                     	;# 
   366  008D                     	;# 
   367  008E                     	;# 
   368  0091                     	;# 
   369  0092                     	;# 
   370  0093                     	;# 
   371  0094                     	;# 
   372  0098                     	;# 
   373  0099                     	;# 
   374  009C                     	;# 
   375  009D                     	;# 
   376  009E                     	;# 
   377  009F                     	;# 
   378  010C                     	;# 
   379  010D                     	;# 
   380  010E                     	;# 
   381  010F                     	;# 
   382  018C                     	;# 
   383  018D                     	;# 
   384  0000                     	;# 
   385  0001                     	;# 
   386  0002                     	;# 
   387  0003                     	;# 
   388  0004                     	;# 
   389  0005                     	;# 
   390  0006                     	;# 
   391  0007                     	;# 
   392  0008                     	;# 
   393  0009                     	;# 
   394  000A                     	;# 
   395  000B                     	;# 
   396  000C                     	;# 
   397  000D                     	;# 
   398  000E                     	;# 
   399  000E                     	;# 
   400  000F                     	;# 
   401  0010                     	;# 
   402  0011                     	;# 
   403  0012                     	;# 
   404  0013                     	;# 
   405  0014                     	;# 
   406  0015                     	;# 
   407  0015                     	;# 
   408  0016                     	;# 
   409  0017                     	;# 
   410  0018                     	;# 
   411  0019                     	;# 
   412  001A                     	;# 
   413  001B                     	;# 
   414  001B                     	;# 
   415  001C                     	;# 
   416  001D                     	;# 
   417  001E                     	;# 
   418  001F                     	;# 
   419  0081                     	;# 
   420  0085                     	;# 
   421  0086                     	;# 
   422  0087                     	;# 
   423  0088                     	;# 
   424  0089                     	;# 
   425  008C                     	;# 
   426  008D                     	;# 
   427  008E                     	;# 
   428  0091                     	;# 
   429  0092                     	;# 
   430  0093                     	;# 
   431  0094                     	;# 
   432  0098                     	;# 
   433  0099                     	;# 
   434  009C                     	;# 
   435  009D                     	;# 
   436  009E                     	;# 
   437  009F                     	;# 
   438  010C                     	;# 
   439  010D                     	;# 
   440  010E                     	;# 
   441  010F                     	;# 
   442  018C                     	;# 
   443  018D                     	;# 
   444  0000                     	;# 
   445  0001                     	;# 
   446  0002                     	;# 
   447  0003                     	;# 
   448  0004                     	;# 
   449  0005                     	;# 
   450  0006                     	;# 
   451  0007                     	;# 
   452  0008                     	;# 
   453  0009                     	;# 
   454  000A                     	;# 
   455  000B                     	;# 
   456  000C                     	;# 
   457  000D                     	;# 
   458  000E                     	;# 
   459  000E                     	;# 
   460  000F                     	;# 
   461  0010                     	;# 
   462  0011                     	;# 
   463  0012                     	;# 
   464  0013                     	;# 
   465  0014                     	;# 
   466  0015                     	;# 
   467  0015                     	;# 
   468  0016                     	;# 
   469  0017                     	;# 
   470  0018                     	;# 
   471  0019                     	;# 
   472  001A                     	;# 
   473  001B                     	;# 
   474  001B                     	;# 
   475  001C                     	;# 
   476  001D                     	;# 
   477  001E                     	;# 
   478  001F                     	;# 
   479  0081                     	;# 
   480  0085                     	;# 
   481  0086                     	;# 
   482  0087                     	;# 
   483  0088                     	;# 
   484  0089                     	;# 
   485  008C                     	;# 
   486  008D                     	;# 
   487  008E                     	;# 
   488  0091                     	;# 
   489  0092                     	;# 
   490  0093                     	;# 
   491  0094                     	;# 
   492  0098                     	;# 
   493  0099                     	;# 
   494  009C                     	;# 
   495  009D                     	;# 
   496  009E                     	;# 
   497  009F                     	;# 
   498  010C                     	;# 
   499  010D                     	;# 
   500  010E                     	;# 
   501  010F                     	;# 
   502  018C                     	;# 
   503  018D                     	;# 
   504  0000                     	;# 
   505  0001                     	;# 
   506  0002                     	;# 
   507  0003                     	;# 
   508  0004                     	;# 
   509  0005                     	;# 
   510  0006                     	;# 
   511  0007                     	;# 
   512  0008                     	;# 
   513  0009                     	;# 
   514  000A                     	;# 
   515  000B                     	;# 
   516  000C                     	;# 
   517  000D                     	;# 
   518  000E                     	;# 
   519  000E                     	;# 
   520  000F                     	;# 
   521  0010                     	;# 
   522  0011                     	;# 
   523  0012                     	;# 
   524  0013                     	;# 
   525  0014                     	;# 
   526  0015                     	;# 
   527  0015                     	;# 
   528  0016                     	;# 
   529  0017                     	;# 
   530  0018                     	;# 
   531  0019                     	;# 
   532  001A                     	;# 
   533  001B                     	;# 
   534  001B                     	;# 
   535  001C                     	;# 
   536  001D                     	;# 
   537  001E                     	;# 
   538  001F                     	;# 
   539  0081                     	;# 
   540  0085                     	;# 
   541  0086                     	;# 
   542  0087                     	;# 
   543  0088                     	;# 
   544  0089                     	;# 
   545  008C                     	;# 
   546  008D                     	;# 
   547  008E                     	;# 
   548  0091                     	;# 
   549  0092                     	;# 
   550  0093                     	;# 
   551  0094                     	;# 
   552  0098                     	;# 
   553  0099                     	;# 
   554  009C                     	;# 
   555  009D                     	;# 
   556  009E                     	;# 
   557  009F                     	;# 
   558  010C                     	;# 
   559  010D                     	;# 
   560  010E                     	;# 
   561  010F                     	;# 
   562  018C                     	;# 
   563  018D                     	;# 
   564  0000                     	;# 
   565  0001                     	;# 
   566  0002                     	;# 
   567  0003                     	;# 
   568  0004                     	;# 
   569  0005                     	;# 
   570  0006                     	;# 
   571  0007                     	;# 
   572  0008                     	;# 
   573  0009                     	;# 
   574  000A                     	;# 
   575  000B                     	;# 
   576  000C                     	;# 
   577  000D                     	;# 
   578  000E                     	;# 
   579  000E                     	;# 
   580  000F                     	;# 
   581  0010                     	;# 
   582  0011                     	;# 
   583  0012                     	;# 
   584  0013                     	;# 
   585  0014                     	;# 
   586  0015                     	;# 
   587  0015                     	;# 
   588  0016                     	;# 
   589  0017                     	;# 
   590  0018                     	;# 
   591  0019                     	;# 
   592  001A                     	;# 
   593  001B                     	;# 
   594  001B                     	;# 
   595  001C                     	;# 
   596  001D                     	;# 
   597  001E                     	;# 
   598  001F                     	;# 
   599  0081                     	;# 
   600  0085                     	;# 
   601  0086                     	;# 
   602  0087                     	;# 
   603  0088                     	;# 
   604  0089                     	;# 
   605  008C                     	;# 
   606  008D                     	;# 
   607  008E                     	;# 
   608  0091                     	;# 
   609  0092                     	;# 
   610  0093                     	;# 
   611  0094                     	;# 
   612  0098                     	;# 
   613  0099                     	;# 
   614  009C                     	;# 
   615  009D                     	;# 
   616  009E                     	;# 
   617  009F                     	;# 
   618  010C                     	;# 
   619  010D                     	;# 
   620  010E                     	;# 
   621  010F                     	;# 
   622  018C                     	;# 
   623  018D                     	;# 
   624  0000                     	;# 
   625  0001                     	;# 
   626  0002                     	;# 
   627  0003                     	;# 
   628  0004                     	;# 
   629  0005                     	;# 
   630  0006                     	;# 
   631  0007                     	;# 
   632  0008                     	;# 
   633  0009                     	;# 
   634  000A                     	;# 
   635  000B                     	;# 
   636  000C                     	;# 
   637  000D                     	;# 
   638  000E                     	;# 
   639  000E                     	;# 
   640  000F                     	;# 
   641  0010                     	;# 
   642  0011                     	;# 
   643  0012                     	;# 
   644  0013                     	;# 
   645  0014                     	;# 
   646  0015                     	;# 
   647  0015                     	;# 
   648  0016                     	;# 
   649  0017                     	;# 
   650  0018                     	;# 
   651  0019                     	;# 
   652  001A                     	;# 
   653  001B                     	;# 
   654  001B                     	;# 
   655  001C                     	;# 
   656  001D                     	;# 
   657  001E                     	;# 
   658  001F                     	;# 
   659  0081                     	;# 
   660  0085                     	;# 
   661  0086                     	;# 
   662  0087                     	;# 
   663  0088                     	;# 
   664  0089                     	;# 
   665  008C                     	;# 
   666  008D                     	;# 
   667  008E                     	;# 
   668  0091                     	;# 
   669  0092                     	;# 
   670  0093                     	;# 
   671  0094                     	;# 
   672  0098                     	;# 
   673  0099                     	;# 
   674  009C                     	;# 
   675  009D                     	;# 
   676  009E                     	;# 
   677  009F                     	;# 
   678  010C                     	;# 
   679  010D                     	;# 
   680  010E                     	;# 
   681  010F                     	;# 
   682  018C                     	;# 
   683  018D                     	;# 
   684  0000                     	;# 
   685  0001                     	;# 
   686  0002                     	;# 
   687  0003                     	;# 
   688  0004                     	;# 
   689  0005                     	;# 
   690  0006                     	;# 
   691  0007                     	;# 
   692  0008                     	;# 
   693  0009                     	;# 
   694  000A                     	;# 
   695  000B                     	;# 
   696  000C                     	;# 
   697  000D                     	;# 
   698  000E                     	;# 
   699  000E                     	;# 
   700  000F                     	;# 
   701  0010                     	;# 
   702  0011                     	;# 
   703  0012                     	;# 
   704  0013                     	;# 
   705  0014                     	;# 
   706  0015                     	;# 
   707  0015                     	;# 
   708  0016                     	;# 
   709  0017                     	;# 
   710  0018                     	;# 
   711  0019                     	;# 
   712  001A                     	;# 
   713  001B                     	;# 
   714  001B                     	;# 
   715  001C                     	;# 
   716  001D                     	;# 
   717  001E                     	;# 
   718  001F                     	;# 
   719  0081                     	;# 
   720  0085                     	;# 
   721  0086                     	;# 
   722  0087                     	;# 
   723  0088                     	;# 
   724  0089                     	;# 
   725  008C                     	;# 
   726  008D                     	;# 
   727  008E                     	;# 
   728  0091                     	;# 
   729  0092                     	;# 
   730  0093                     	;# 
   731  0094                     	;# 
   732  0098                     	;# 
   733  0099                     	;# 
   734  009C                     	;# 
   735  009D                     	;# 
   736  009E                     	;# 
   737  009F                     	;# 
   738  010C                     	;# 
   739  010D                     	;# 
   740  010E                     	;# 
   741  010F                     	;# 
   742  018C                     	;# 
   743  018D                     	;# 
   744  0000                     	;# 
   745  0001                     	;# 
   746  0002                     	;# 
   747  0003                     	;# 
   748  0004                     	;# 
   749  0005                     	;# 
   750  0006                     	;# 
   751  0007                     	;# 
   752  0008                     	;# 
   753  0009                     	;# 
   754  000A                     	;# 
   755  000B                     	;# 
   756  000C                     	;# 
   757  000D                     	;# 
   758  000E                     	;# 
   759  000E                     	;# 
   760  000F                     	;# 
   761  0010                     	;# 
   762  0011                     	;# 
   763  0012                     	;# 
   764  0013                     	;# 
   765  0014                     	;# 
   766  0015                     	;# 
   767  0015                     	;# 
   768  0016                     	;# 
   769  0017                     	;# 
   770  0018                     	;# 
   771  0019                     	;# 
   772  001A                     	;# 
   773  001B                     	;# 
   774  001B                     	;# 
   775  001C                     	;# 
   776  001D                     	;# 
   777  001E                     	;# 
   778  001F                     	;# 
   779  0081                     	;# 
   780  0085                     	;# 
   781  0086                     	;# 
   782  0087                     	;# 
   783  0088                     	;# 
   784  0089                     	;# 
   785  008C                     	;# 
   786  008D                     	;# 
   787  008E                     	;# 
   788  0091                     	;# 
   789  0092                     	;# 
   790  0093                     	;# 
   791  0094                     	;# 
   792  0098                     	;# 
   793  0099                     	;# 
   794  009C                     	;# 
   795  009D                     	;# 
   796  009E                     	;# 
   797  009F                     	;# 
   798  010C                     	;# 
   799  010D                     	;# 
   800  010E                     	;# 
   801  010F                     	;# 
   802  018C                     	;# 
   803  018D                     	;# 
   804  0000                     	;# 
   805  0001                     	;# 
   806  0002                     	;# 
   807  0003                     	;# 
   808  0004                     	;# 
   809  0005                     	;# 
   810  0006                     	;# 
   811  0007                     	;# 
   812  0008                     	;# 
   813  0009                     	;# 
   814  000A                     	;# 
   815  000B                     	;# 
   816  000C                     	;# 
   817  000D                     	;# 
   818  000E                     	;# 
   819  000E                     	;# 
   820  000F                     	;# 
   821  0010                     	;# 
   822  0011                     	;# 
   823  0012                     	;# 
   824  0013                     	;# 
   825  0014                     	;# 
   826  0015                     	;# 
   827  0015                     	;# 
   828  0016                     	;# 
   829  0017                     	;# 
   830  0018                     	;# 
   831  0019                     	;# 
   832  001A                     	;# 
   833  001B                     	;# 
   834  001B                     	;# 
   835  001C                     	;# 
   836  001D                     	;# 
   837  001E                     	;# 
   838  001F                     	;# 
   839  0081                     	;# 
   840  0085                     	;# 
   841  0086                     	;# 
   842  0087                     	;# 
   843  0088                     	;# 
   844  0089                     	;# 
   845  008C                     	;# 
   846  008D                     	;# 
   847  008E                     	;# 
   848  0091                     	;# 
   849  0092                     	;# 
   850  0093                     	;# 
   851  0094                     	;# 
   852  0098                     	;# 
   853  0099                     	;# 
   854  009C                     	;# 
   855  009D                     	;# 
   856  009E                     	;# 
   857  009F                     	;# 
   858  010C                     	;# 
   859  010D                     	;# 
   860  010E                     	;# 
   861  010F                     	;# 
   862  018C                     	;# 
   863  018D                     	;# 
   864  0000                     	;# 
   865  0001                     	;# 
   866  0002                     	;# 
   867  0003                     	;# 
   868  0004                     	;# 
   869  0005                     	;# 
   870  0006                     	;# 
   871  0007                     	;# 
   872  0008                     	;# 
   873  0009                     	;# 
   874  000A                     	;# 
   875  000B                     	;# 
   876  000C                     	;# 
   877  000D                     	;# 
   878  000E                     	;# 
   879  000E                     	;# 
   880  000F                     	;# 
   881  0010                     	;# 
   882  0011                     	;# 
   883  0012                     	;# 
   884  0013                     	;# 
   885  0014                     	;# 
   886  0015                     	;# 
   887  0015                     	;# 
   888  0016                     	;# 
   889  0017                     	;# 
   890  0018                     	;# 
   891  0019                     	;# 
   892  001A                     	;# 
   893  001B                     	;# 
   894  001B                     	;# 
   895  001C                     	;# 
   896  001D                     	;# 
   897  001E                     	;# 
   898  001F                     	;# 
   899  0081                     	;# 
   900  0085                     	;# 
   901  0086                     	;# 
   902  0087                     	;# 
   903  0088                     	;# 
   904  0089                     	;# 
   905  008C                     	;# 
   906  008D                     	;# 
   907  008E                     	;# 
   908  0091                     	;# 
   909  0092                     	;# 
   910  0093                     	;# 
   911  0094                     	;# 
   912  0098                     	;# 
   913  0099                     	;# 
   914  009C                     	;# 
   915  009D                     	;# 
   916  009E                     	;# 
   917  009F                     	;# 
   918  010C                     	;# 
   919  010D                     	;# 
   920  010E                     	;# 
   921  010F                     	;# 
   922  018C                     	;# 
   923  018D                     	;# 
   924                           
   925                           	psect	strings
   926  059F                     __pstrings:
   927  059F                     stringtab:
   928  059F                     __stringtab:
   929  059F                     stringcode:	
   930                           ;	String table - string pointers are 1 byte each
   931                           
   932  059F                     stringdir:
   933  059F  3005               	movlw	high stringdir
   934  05A0  008A               	movwf	10
   935  05A1  0804               	movf	4,w
   936  05A2  0A84               	incf	4,f
   937  05A3  0782               	addwf	2,f
   938  05A4                     __stringbase:
   939  05A4  3400               	retlw	0
   940  05A5                     __end_of__stringtab:
   941  05A5                     _Tasks:
   942  05A5  3414               	retlw	20
   943  05A6  3400               	retlw	0
   944  05A7  3406               	retlw	low (fp__Scheduler_Task1-fpbase)
   945  05A8  3464               	retlw	100
   946  05A9  3400               	retlw	0
   947  05AA  3409               	retlw	low (fp__Scheduler_Task2-fpbase)
   948  05AB  34E8               	retlw	232
   949  05AC  3403               	retlw	3
   950  05AD  3403               	retlw	low (fp__Scheduler_Task3-fpbase)
   951  05AE                     __end_of_Tasks:
   952  05AE                     _Interrupt_CbStruct:
   953  05AE  3404               	retlw	low (fp__Timer0_CB-i1fpbase)
   954  05AF  3401               	retlw	low (fp__EXTI_SettingButton_CB-i1fpbase)
   955  05B0                     __end_of_Interrupt_CbStruct:
   956  0008                     _PORTD	set	8
   957  0005                     _PORTA	set	5
   958  0006                     _PORTB	set	6
   959  0001                     _TMR0	set	1
   960  000B                     _INTCONbits	set	11
   961  0088                     _TRISD	set	136
   962  0085                     _TRISA	set	133
   963  0086                     _TRISB	set	134
   964  0081                     _OPTION_REGbits	set	129
   965                           
   966                           	psect	cinit
   967  0015                     start_initialization:	
   968                           ; #config settings
   969                           
   970  0015                     __initialization:
   971                           
   972                           ; Clear objects allocated to BANK0
   973  0015  1383               	bcf	3,7	;select IRP bank0
   974  0016  303C               	movlw	low __pbssBANK0
   975  0017  0084               	movwf	4
   976  0018  3055               	movlw	low (__pbssBANK0+25)
   977  0019  120A  118A  25CF  120A  118A  	fcall	clear_ram0
   978  001E                     end_of_initialization:	
   979                           ;End of C runtime variable initialization code
   980                           
   981  001E                     __end_of__initialization:
   982  001E  0183               	clrf	3
   983  001F  120A  118A  2C5A   	ljmp	_main	;jump to C main() function
   984                           
   985                           	psect	bssBANK0
   986  003C                     __pbssBANK0:
   987  003C                     _Tick:
   988  003C                     	ds	4
   989  0040                     _Clock:
   990  0040                     	ds	3
   991  0043                     _Digit4:
   992  0043                     	ds	1
   993  0044                     _Digit3:
   994  0044                     	ds	1
   995  0045                     _Digit2:
   996  0045                     	ds	1
   997  0046                     _Digit1:
   998  0046                     	ds	1
   999  0047                     _DigitSelector:
  1000  0047                     	ds	1
  1001  0048                     Buttons_Update@Debounce_Counter:
  1002  0048                     	ds	1
  1003  0049                     _ButtonsFlag:
  1004  0049                     	ds	1
  1005  004A                     _MODE:
  1006  004A                     	ds	1
  1007  004B                     _Display:
  1008  004B                     	ds	1
  1009  004C                     _Debounce_DownButton:
  1010  004C                     	ds	3
  1011  004F                     _Debounce_UpButton:
  1012  004F                     	ds	3
  1013  0052                     _Task_Flag:
  1014  0052                     	ds	3
  1015                           
  1016                           	psect	clrtext
  1017  05CF                     clear_ram0:	
  1018                           ;	Called with FSR containing the base address, and
  1019                           ;	W with the last address+1
  1020                           
  1021  05CF  0064               	clrwdt	;clear the watchdog before getting into this loop
  1022  05D0                     clrloop0:
  1023  05D0  0180               	clrf	0	;clear RAM location pointed to by FSR
  1024  05D1  0A84               	incf	4,f	;increment pointer
  1025  05D2  0604               	xorwf	4,w	;XOR with final address
  1026  05D3  1903               	btfsc	3,2	;have we reached the end yet?
  1027  05D4  3400               	retlw	0	;all done for this memory range, return
  1028  05D5  0604               	xorwf	4,w	;XOR again to restore value
  1029  05D6  2DD0               	goto	clrloop0	;do the next byte
  1030                           
  1031                           	psect	cstackBANK1
  1032  00A0                     __pcstackBANK1:
  1033  00A0                     ??_GPIO_Init:
  1034  00A0                     ??_Clock_Init:	
  1035                           ; 1 bytes @ 0x0
  1036                           
  1037  00A0                     ??_ModeManager_Init:	
  1038                           ; 1 bytes @ 0x0
  1039                           
  1040  00A0                     ??_Timer_Init:	
  1041                           ; 1 bytes @ 0x0
  1042                           
  1043  00A0                     ??_Timer_Start:	
  1044                           ; 1 bytes @ 0x0
  1045                           
  1046  00A0                     ?_memset:	
  1047                           ; 1 bytes @ 0x0
  1048                           
  1049  00A0                     ??_Display_Hour_Setting:	
  1050                           ; 1 bytes @ 0x0
  1051                           
  1052  00A0                     ??_Display_Minutes_Setting:	
  1053                           ; 1 bytes @ 0x0
  1054                           
  1055  00A0                     ??_SSD_Display:	
  1056                           ; 1 bytes @ 0x0
  1057                           
  1058  00A0                     ??_SSD_DigitSelector:	
  1059                           ; 1 bytes @ 0x0
  1060                           
  1061  00A0                     ??_Clock_Update:	
  1062                           ; 1 bytes @ 0x0
  1063                           
  1064  00A0                     ??_Clock_Normal:	
  1065                           ; 1 bytes @ 0x0
  1066                           
  1067  00A0                     ??_Clock_Hour_Setting:	
  1068                           ; 1 bytes @ 0x0
  1069                           
  1070  00A0                     ??_Clock_Minutes_Setting:	
  1071                           ; 1 bytes @ 0x0
  1072                           
  1073  00A0                     ??_ModeManager_Update:	
  1074                           ; 1 bytes @ 0x0
  1075                           
  1076  00A0                     ?___bmul:	
  1077                           ; 1 bytes @ 0x0
  1078                           
  1079  00A0                     ?___awdiv:	
  1080                           ; 1 bytes @ 0x0
  1081                           
  1082  00A0                     ?___awmod:	
  1083                           ; 2 bytes @ 0x0
  1084                           
  1085  00A0                     ___bmul@multiplicand:	
  1086                           ; 2 bytes @ 0x0
  1087                           
  1088  00A0                     ___awdiv@divisor:	
  1089                           ; 1 bytes @ 0x0
  1090                           
  1091  00A0                     ___awmod@divisor:	
  1092                           ; 2 bytes @ 0x0
  1093                           
  1094  00A0                     memset@c:	
  1095                           ; 2 bytes @ 0x0
  1096                           
  1097                           
  1098                           ; 2 bytes @ 0x0
  1099  00A0                     	ds	1
  1100  00A1                     ??___bmul:
  1101  00A1                     ___bmul@product:	
  1102                           ; 1 bytes @ 0x1
  1103                           
  1104                           
  1105                           ; 1 bytes @ 0x1
  1106  00A1                     	ds	1
  1107  00A2                     ??_Scheduler_Task2:
  1108  00A2                     ??_Scheduler_Task3:	
  1109                           ; 1 bytes @ 0x2
  1110                           
  1111  00A2                     SSD_Display@Number:	
  1112                           ; 1 bytes @ 0x2
  1113                           
  1114  00A2                     ___bmul@multiplier:	
  1115                           ; 1 bytes @ 0x2
  1116                           
  1117  00A2                     ___awdiv@dividend:	
  1118                           ; 1 bytes @ 0x2
  1119                           
  1120  00A2                     ___awmod@dividend:	
  1121                           ; 2 bytes @ 0x2
  1122                           
  1123  00A2                     memset@n:	
  1124                           ; 2 bytes @ 0x2
  1125                           
  1126                           
  1127                           ; 2 bytes @ 0x2
  1128  00A2                     	ds	1
  1129  00A3                     ??_Display_Normal:
  1130  00A3                     ??_Display_Update:	
  1131                           ; 1 bytes @ 0x3
  1132                           
  1133                           
  1134                           ; 1 bytes @ 0x3
  1135  00A3                     	ds	1
  1136  00A4                     ??_memset:
  1137  00A4                     ??___awdiv:	
  1138                           ; 1 bytes @ 0x4
  1139                           
  1140  00A4                     ??___awmod:	
  1141                           ; 1 bytes @ 0x4
  1142                           
  1143  00A4                     ___awdiv@counter:	
  1144                           ; 1 bytes @ 0x4
  1145                           
  1146  00A4                     ___awmod@counter:	
  1147                           ; 1 bytes @ 0x4
  1148                           
  1149  00A4                     memset@p:	
  1150                           ; 1 bytes @ 0x4
  1151                           
  1152                           
  1153                           ; 1 bytes @ 0x4
  1154  00A4                     	ds	1
  1155  00A5                     ??_Scheduler_Update:
  1156  00A5                     ??_Scheduler_Task1:	
  1157                           ; 1 bytes @ 0x5
  1158                           
  1159  00A5                     Scheduler_Update@i:	
  1160                           ; 1 bytes @ 0x5
  1161                           
  1162  00A5                     ___awdiv@sign:	
  1163                           ; 1 bytes @ 0x5
  1164                           
  1165  00A5                     ___awmod@sign:	
  1166                           ; 1 bytes @ 0x5
  1167                           
  1168  00A5                     memset@p1:	
  1169                           ; 1 bytes @ 0x5
  1170                           
  1171                           
  1172                           ; 1 bytes @ 0x5
  1173  00A5                     	ds	1
  1174  00A6                     ??_Scheduler_Init:
  1175  00A6                     ___awdiv@quotient:	
  1176                           ; 1 bytes @ 0x6
  1177                           
  1178                           
  1179                           ; 2 bytes @ 0x6
  1180  00A6                     	ds	2
  1181  00A8                     ??_Display_Init:
  1182                           
  1183                           ; 1 bytes @ 0x8
  1184  00A8                     	ds	2
  1185  00AA                     ??_main:
  1186                           
  1187                           	psect	cstackCOMMON
  1188  0070                     __pcstackCOMMON:	
  1189                           ; 1 bytes @ 0xA
  1190                           
  1191  0070                     ?_GPIO_Init:
  1192  0070                     ?_Display_Init:	
  1193                           ; 1 bytes @ 0x0
  1194                           
  1195  0070                     ?_Clock_Init:	
  1196                           ; 1 bytes @ 0x0
  1197                           
  1198  0070                     ?_ModeManager_Init:	
  1199                           ; 1 bytes @ 0x0
  1200                           
  1201  0070                     ?_Timer_Init:	
  1202                           ; 1 bytes @ 0x0
  1203                           
  1204  0070                     ?_Scheduler_Init:	
  1205                           ; 1 bytes @ 0x0
  1206                           
  1207  0070                     ?_Timer_Start:	
  1208                           ; 1 bytes @ 0x0
  1209                           
  1210  0070                     ?_Scheduler_Update:	
  1211                           ; 1 bytes @ 0x0
  1212                           
  1213  0070                     ?_Display_Normal:	
  1214                           ; 1 bytes @ 0x0
  1215                           
  1216  0070                     ?_Display_Hour_Setting:	
  1217                           ; 1 bytes @ 0x0
  1218                           
  1219  0070                     ?_Display_Minutes_Setting:	
  1220                           ; 1 bytes @ 0x0
  1221                           
  1222  0070                     ?_SSD_Display:	
  1223                           ; 1 bytes @ 0x0
  1224                           
  1225  0070                     ?_SSD_DigitSelector:	
  1226                           ; 1 bytes @ 0x0
  1227                           
  1228  0070                     ?_Scheduler_Task1:	
  1229                           ; 1 bytes @ 0x0
  1230                           
  1231  0070                     ?_Scheduler_Task2:	
  1232                           ; 1 bytes @ 0x0
  1233                           
  1234  0070                     ?_Scheduler_Task3:	
  1235                           ; 1 bytes @ 0x0
  1236                           
  1237  0070                     ?_Clock_Update:	
  1238                           ; 1 bytes @ 0x0
  1239                           
  1240  0070                     ?_Clock_Normal:	
  1241                           ; 1 bytes @ 0x0
  1242                           
  1243  0070                     ?_Clock_Hour_Setting:	
  1244                           ; 1 bytes @ 0x0
  1245                           
  1246  0070                     ?_Clock_Minutes_Setting:	
  1247                           ; 1 bytes @ 0x0
  1248                           
  1249  0070                     ?_main:	
  1250                           ; 1 bytes @ 0x0
  1251                           
  1252  0070                     ?_Timer0_CB:	
  1253                           ; 1 bytes @ 0x0
  1254                           
  1255  0070                     ?_EXTI_SettingButton_CB:	
  1256                           ; 1 bytes @ 0x0
  1257                           
  1258  0070                     ??_EXTI_SettingButton_CB:	
  1259                           ; 1 bytes @ 0x0
  1260                           
  1261  0070                     ?_Display_Update:	
  1262                           ; 1 bytes @ 0x0
  1263                           
  1264  0070                     ?_ModeManager_Update:	
  1265                           ; 1 bytes @ 0x0
  1266                           
  1267  0070                     ?_ISR:	
  1268                           ; 1 bytes @ 0x0
  1269                           
  1270  0070                     ?i1___bmul:	
  1271                           ; 1 bytes @ 0x0
  1272                           
  1273  0070                     i1___bmul@multiplicand:	
  1274                           ; 1 bytes @ 0x0
  1275                           
  1276                           
  1277                           ; 1 bytes @ 0x0
  1278  0070                     	ds	1
  1279  0071                     ??i1___bmul:
  1280  0071                     i1___bmul@product:	
  1281                           ; 1 bytes @ 0x1
  1282                           
  1283                           
  1284                           ; 1 bytes @ 0x1
  1285  0071                     	ds	1
  1286  0072                     i1___bmul@multiplier:
  1287                           
  1288                           ; 1 bytes @ 0x2
  1289  0072                     	ds	1
  1290  0073                     ?___lldiv:
  1291  0073                     ___lldiv@divisor:	
  1292                           ; 4 bytes @ 0x3
  1293                           
  1294                           
  1295                           ; 4 bytes @ 0x3
  1296  0073                     	ds	4
  1297  0077                     ___lldiv@dividend:
  1298                           
  1299                           ; 4 bytes @ 0x7
  1300  0077                     	ds	4
  1301  007B                     ??___lldiv:
  1302                           
  1303                           ; 1 bytes @ 0xB
  1304  007B                     	ds	1
  1305  007C                     ??___llmod:
  1306                           
  1307                           ; 1 bytes @ 0xC
  1308  007C                     	ds	1
  1309  007D                     ___llmod@counter:
  1310                           
  1311                           ; 1 bytes @ 0xD
  1312  007D                     	ds	1
  1313  007E                     ??_Timer0_CB:
  1314                           
  1315                           	psect	cstackBANK0
  1316  0020                     __pcstackBANK0:	
  1317                           ; 1 bytes @ 0xE
  1318                           
  1319  0020                     ___lldiv@quotient:
  1320                           
  1321                           ; 4 bytes @ 0x0
  1322  0020                     	ds	4
  1323  0024                     ___lldiv@counter:
  1324                           
  1325                           ; 1 bytes @ 0x4
  1326  0024                     	ds	1
  1327  0025                     ?___llmod:
  1328  0025                     ___llmod@divisor:	
  1329                           ; 4 bytes @ 0x5
  1330                           
  1331                           
  1332                           ; 4 bytes @ 0x5
  1333  0025                     	ds	4
  1334  0029                     ___llmod@dividend:
  1335                           
  1336                           ; 4 bytes @ 0x9
  1337  0029                     	ds	4
  1338  002D                     ?_Scheduler_Active:
  1339  002D                     Scheduler_Active@System_Tick:	
  1340                           ; 1 bytes @ 0xD
  1341                           
  1342                           
  1343                           ; 4 bytes @ 0xD
  1344  002D                     	ds	4
  1345  0031                     ??_Scheduler_Active:
  1346                           
  1347                           ; 1 bytes @ 0x11
  1348  0031                     	ds	6
  1349  0037                     Scheduler_Active@i:
  1350                           
  1351                           ; 1 bytes @ 0x17
  1352  0037                     	ds	1
  1353  0038                     ??_ISR:
  1354                           
  1355                           ; 1 bytes @ 0x18
  1356  0038                     	ds	4
  1357                           
  1358                           	psect	maintext
  1359  045A                     __pmaintext:	
  1360 ;;
  1361 ;;Main: autosize = 0, tempsize = 0, incstack = 0, save=0
  1362 ;;
  1363 ;; *************** function _main *****************
  1364 ;; Defined at:
  1365 ;;		line 16 in file "main.c"
  1366 ;; Parameters:    Size  Location     Type
  1367 ;;		None
  1368 ;; Auto vars:     Size  Location     Type
  1369 ;;		None
  1370 ;; Return value:  Size  Location     Type
  1371 ;;                  1    wreg      void 
  1372 ;; Registers used:
  1373 ;;		wreg, fsr0l, fsr0h, status,2, status,0, btemp+1, pclath, cstack
  1374 ;; Tracked objects:
  1375 ;;		On entry : B00/0
  1376 ;;		On exit  : 0/0
  1377 ;;		Unchanged: 0/0
  1378 ;; Data sizes:     COMMON   BANK0   BANK1   BANK3   BANK2
  1379 ;;      Params:         0       0       0       0       0
  1380 ;;      Locals:         0       0       0       0       0
  1381 ;;      Temps:          0       0       0       0       0
  1382 ;;      Totals:         0       0       0       0       0
  1383 ;;Total ram usage:        0 bytes
  1384 ;; Hardware stack levels required when called:    9
  1385 ;; This function calls:
  1386 ;;		_Clock_Init
  1387 ;;		_Display_Init
  1388 ;;		_GPIO_Init
  1389 ;;		_ModeManager_Init
  1390 ;;		_Scheduler_Init
  1391 ;;		_Scheduler_Update
  1392 ;;		_Timer_Init
  1393 ;;		_Timer_Start
  1394 ;; This function is called by:
  1395 ;;		Startup code after reset
  1396 ;; This function uses a non-reentrant model
  1397 ;;
  1398                           
  1399                           
  1400                           ;psect for function _main
  1401  045A                     _main:
  1402  045A                     l2457:	
  1403                           ;incstack = 0
  1404 ;; hardware stack exceeded
  1405                           ; Regs used in _main: [wreg-fsr0h+status,2+status,0+btemp+1+pclath+cstack]
  1406                           
  1407                           
  1408                           ;main.c: 17:     GPIO_Init();
  1409  045A  120A  118A  2574  120A  118A  	fcall	_GPIO_Init
  1410                           
  1411                           ;main.c: 18:     Display_Init();
  1412  045F  120A  118A  203F  120A  118A  	fcall	_Display_Init
  1413  0464                     l2459:
  1414                           
  1415                           ;main.c: 19:     Clock_Init();
  1416  0464  120A  118A  25E9  120A  118A  	fcall	_Clock_Init
  1417  0469                     l2461:
  1418                           
  1419                           ;main.c: 20:     ModeManager_Init();
  1420  0469  120A  118A  25EF  120A  118A  	fcall	_ModeManager_Init
  1421  046E                     l2463:
  1422                           
  1423                           ;main.c: 21:     Timer_Init();
  1424  046E  120A  118A  25C0  120A  118A  	fcall	_Timer_Init
  1425  0473                     l2465:
  1426                           
  1427                           ;main.c: 22:     Scheduler_Init();
  1428  0473  120A  118A  25B0  120A  118A  	fcall	_Scheduler_Init
  1429  0478                     l2467:
  1430                           
  1431                           ;main.c: 23:     Timer_Start();
  1432  0478  120A  118A  25F7  120A  118A  	fcall	_Timer_Start
  1433  047D                     l2469:
  1434                           
  1435                           ;main.c: 24:     Scheduler_Update();
  1436  047D  120A  118A  23CF  120A  118A  	fcall	_Scheduler_Update
  1437  0482                     l27:
  1438  0482  120A  118A  2812   	ljmp	start
  1439  0485                     __end_of_main:
  1440                           
  1441                           	psect	text1
  1442  05F7                     __ptext1:	
  1443 ;; *************** function _Timer_Start *****************
  1444 ;; Defined at:
  1445 ;;		line 31 in file "Timer/Timer.c"
  1446 ;; Parameters:    Size  Location     Type
  1447 ;;		None
  1448 ;; Auto vars:     Size  Location     Type
  1449 ;;		None
  1450 ;; Return value:  Size  Location     Type
  1451 ;;                  1    wreg      void 
  1452 ;; Registers used:
  1453 ;;		None
  1454 ;; Tracked objects:
  1455 ;;		On entry : 0/0
  1456 ;;		On exit  : 0/0
  1457 ;;		Unchanged: 0/0
  1458 ;; Data sizes:     COMMON   BANK0   BANK1   BANK3   BANK2
  1459 ;;      Params:         0       0       0       0       0
  1460 ;;      Locals:         0       0       0       0       0
  1461 ;;      Temps:          0       0       0       0       0
  1462 ;;      Totals:         0       0       0       0       0
  1463 ;;Total ram usage:        0 bytes
  1464 ;; Hardware stack levels used:    1
  1465 ;; Hardware stack levels required when called:    4
  1466 ;; This function calls:
  1467 ;;		Nothing
  1468 ;; This function is called by:
  1469 ;;		_main
  1470 ;; This function uses a non-reentrant model
  1471 ;;
  1472                           
  1473                           
  1474                           ;psect for function _Timer_Start
  1475  05F7                     _Timer_Start:
  1476  05F7                     l2437:	
  1477                           ;incstack = 0
  1478                           ; Regs used in _Timer_Start: []
  1479                           
  1480                           
  1481                           ;Timer/Timer.c: 33:      INTCONbits.T0IE=1;
  1482  05F7  168B               	bsf	11,5	;volatile
  1483  05F8                     l68:
  1484  05F8  0008               	return
  1485  05F9                     __end_of_Timer_Start:
  1486                           
  1487                           	psect	text2
  1488  05C0                     __ptext2:	
  1489 ;; *************** function _Timer_Init *****************
  1490 ;; Defined at:
  1491 ;;		line 13 in file "Timer/Timer.c"
  1492 ;; Parameters:    Size  Location     Type
  1493 ;;		None
  1494 ;; Auto vars:     Size  Location     Type
  1495 ;;		None
  1496 ;; Return value:  Size  Location     Type
  1497 ;;                  1    wreg      void 
  1498 ;; Registers used:
  1499 ;;		wreg
  1500 ;; Tracked objects:
  1501 ;;		On entry : 0/0
  1502 ;;		On exit  : 0/0
  1503 ;;		Unchanged: 0/0
  1504 ;; Data sizes:     COMMON   BANK0   BANK1   BANK3   BANK2
  1505 ;;      Params:         0       0       0       0       0
  1506 ;;      Locals:         0       0       0       0       0
  1507 ;;      Temps:          0       0       0       0       0
  1508 ;;      Totals:         0       0       0       0       0
  1509 ;;Total ram usage:        0 bytes
  1510 ;; Hardware stack levels used:    1
  1511 ;; Hardware stack levels required when called:    4
  1512 ;; This function calls:
  1513 ;;		Nothing
  1514 ;; This function is called by:
  1515 ;;		_main
  1516 ;; This function uses a non-reentrant model
  1517 ;;
  1518                           
  1519                           
  1520                           ;psect for function _Timer_Init
  1521  05C0                     _Timer_Init:
  1522  05C0                     l2429:	
  1523                           ;incstack = 0
  1524                           ; Regs used in _Timer_Init: [wreg]
  1525                           
  1526                           
  1527                           ;Timer/Timer.c: 15:     OPTION_REGbits.T0CS=0;
  1528  05C0  1683               	bsf	3,5	;RP0=1, select bank1
  1529  05C1  1303               	bcf	3,6	;RP1=0, select bank1
  1530  05C2  1281               	bcf	1,5	;volatile
  1531                           
  1532                           ;Timer/Timer.c: 16:     OPTION_REGbits.PSA=0;
  1533  05C3  1181               	bcf	1,3	;volatile
  1534                           
  1535                           ;Timer/Timer.c: 18:     OPTION_REGbits.PS0=1;
  1536  05C4  1401               	bsf	1,0	;volatile
  1537                           
  1538                           ;Timer/Timer.c: 19:     OPTION_REGbits.PS1=1;
  1539  05C5  1481               	bsf	1,1	;volatile
  1540                           
  1541                           ;Timer/Timer.c: 20:     OPTION_REGbits.PS2=1;
  1542  05C6  1501               	bsf	1,2	;volatile
  1543                           
  1544                           ;Timer/Timer.c: 22:     INTCONbits.PEIE=1;
  1545  05C7  170B               	bsf	11,6	;volatile
  1546                           
  1547                           ;Timer/Timer.c: 24:     INTCONbits.GIE=1;
  1548  05C8  178B               	bsf	11,7	;volatile
  1549  05C9                     l2431:
  1550                           
  1551                           ;Timer/Timer.c: 25:     TMR0=100;
  1552  05C9  3064               	movlw	100
  1553  05CA  1283               	bcf	3,5	;RP0=0, select bank0
  1554  05CB  1303               	bcf	3,6	;RP1=0, select bank0
  1555  05CC  0081               	movwf	1	;volatile
  1556  05CD                     l2433:
  1557                           
  1558                           ;Timer/Timer.c: 26:     INTCONbits.T0IF=0;
  1559  05CD  110B               	bcf	11,2	;volatile
  1560  05CE                     l65:
  1561  05CE  0008               	return
  1562  05CF                     __end_of_Timer_Init:
  1563                           
  1564                           	psect	text3
  1565  03CF                     __ptext3:	
  1566 ;; *************** function _Scheduler_Update *****************
  1567 ;; Defined at:
  1568 ;;		line 15 in file "Scheduler/Scheduler.c"
  1569 ;; Parameters:    Size  Location     Type
  1570 ;;		None
  1571 ;; Auto vars:     Size  Location     Type
  1572 ;;  i               1    5[BANK1 ] unsigned char 
  1573 ;; Return value:  Size  Location     Type
  1574 ;;                  1    wreg      void 
  1575 ;; Registers used:
  1576 ;;		wreg, fsr0l, fsr0h, status,2, status,0, btemp+1, pclath, cstack
  1577 ;; Tracked objects:
  1578 ;;		On entry : 0/0
  1579 ;;		On exit  : 0/0
  1580 ;;		Unchanged: 0/0
  1581 ;; Data sizes:     COMMON   BANK0   BANK1   BANK3   BANK2
  1582 ;;      Params:         0       0       0       0       0
  1583 ;;      Locals:         0       0       1       0       0
  1584 ;;      Temps:          0       0       0       0       0
  1585 ;;      Totals:         0       0       1       0       0
  1586 ;;Total ram usage:        1 bytes
  1587 ;; Hardware stack levels used:    1
  1588 ;; Hardware stack levels required when called:    8
  1589 ;; This function calls:
  1590 ;;		_Scheduler_Task1
  1591 ;;		_Scheduler_Task2
  1592 ;;		_Scheduler_Task3
  1593 ;;		___bmul
  1594 ;; This function is called by:
  1595 ;;		_main
  1596 ;; This function uses a non-reentrant model
  1597 ;;
  1598                           
  1599                           
  1600                           ;psect for function _Scheduler_Update
  1601  03CF                     _Scheduler_Update:
  1602  03CF                     l39:	
  1603                           ;incstack = 0
  1604 ;; hardware stack exceeded
  1605                           ; Regs used in _Scheduler_Update: [wreg-fsr0h+status,2+status,0+btemp+1+pclath+cstack]
  1606                           ;Scheduler/Scheduler.c: 17:     while(1)
  1607                           
  1608  03CF                     l2439:
  1609                           
  1610                           ;Scheduler/Scheduler.c: 18:     {;Scheduler/Scheduler.c: 20:        for(uint8_t i=0 ;i<(
      +                          3UL);i++)
  1611  03CF  1683               	bsf	3,5	;RP0=1, select bank1
  1612  03D0  1303               	bcf	3,6	;RP1=0, select bank1
  1613  03D1  01A5               	clrf	Scheduler_Update@i^(0+128)
  1614  03D2                     l2445:
  1615                           
  1616                           ;Scheduler/Scheduler.c: 21:        {;Scheduler/Scheduler.c: 23:            if(Task_Flag[
      +                          i]==1)
  1617  03D2  0825               	movf	Scheduler_Update@i^(0+128),w
  1618  03D3  3E52               	addlw	(low (_Task_Flag| 0))& (0+255)
  1619  03D4  0084               	movwf	4
  1620  03D5  1383               	bcf	3,7	;select IRP bank0
  1621  03D6  0300               	decf	0,w
  1622  03D7  1D03               	btfss	3,2
  1623  03D8  2BDA               	goto	u1771
  1624  03D9  2BDB               	goto	u1770
  1625  03DA                     u1771:
  1626  03DA  2BF1               	goto	l2449
  1627  03DB                     u1770:
  1628  03DB                     l2447:
  1629                           
  1630                           ;Scheduler/Scheduler.c: 24:            {;Scheduler/Scheduler.c: 25:                Tasks
      +                          [i].Task();
  1631  03DB  3003               	movlw	3
  1632  03DC  00FF               	movwf	btemp+1
  1633  03DD  087F               	movf	btemp+1,w
  1634  03DE  00A0               	movwf	___bmul@multiplicand^(0+128)
  1635  03DF  0825               	movf	Scheduler_Update@i^(0+128),w
  1636  03E0  120A  118A  255D  120A  118A  	fcall	___bmul
  1637  03E5  3E03               	addlw	low (((_Tasks-__stringbase)| (0+32768)+2))
  1638  03E6  0084               	movwf	4
  1639  03E7  120A  118A  259F  120A  118A  	fcall	stringdir
  1640  03EC  120A  118A  2022  120A  118A  	fcall	fptable
  1641  03F1                     l2449:
  1642                           
  1643                           ;Scheduler/Scheduler.c: 28:        }
  1644  03F1  3001               	movlw	1
  1645  03F2  00FF               	movwf	btemp+1
  1646  03F3  087F               	movf	btemp+1,w
  1647  03F4  1683               	bsf	3,5	;RP0=1, select bank1
  1648  03F5  1303               	bcf	3,6	;RP1=0, select bank1
  1649  03F6  07A5               	addwf	Scheduler_Update@i^(0+128),f
  1650  03F7                     l2451:
  1651  03F7  3003               	movlw	3
  1652  03F8  0225               	subwf	Scheduler_Update@i^(0+128),w
  1653  03F9  1C03               	skipc
  1654  03FA  2BFC               	goto	u1781
  1655  03FB  2BFD               	goto	u1780
  1656  03FC                     u1781:
  1657  03FC  2BD2               	goto	l2445
  1658  03FD                     u1780:
  1659  03FD  2BCF               	goto	l39
  1660  03FE  0008               	return
  1661  03FF                     __end_of_Scheduler_Update:
  1662                           
  1663                           	psect	text4
  1664  055D                     __ptext4:	
  1665 ;; *************** function ___bmul *****************
  1666 ;; Defined at:
  1667 ;;		line 4 in file "C:\Program Files (x86)\Microchip\xc8\v2.20\pic\sources\c90\common\Umul8.c"
  1668 ;; Parameters:    Size  Location     Type
  1669 ;;  multiplier      1    wreg     unsigned char 
  1670 ;;  multiplicand    1    0[BANK1 ] unsigned char 
  1671 ;; Auto vars:     Size  Location     Type
  1672 ;;  multiplier      1    2[BANK1 ] unsigned char 
  1673 ;;  product         1    1[BANK1 ] unsigned char 
  1674 ;; Return value:  Size  Location     Type
  1675 ;;                  1    wreg      unsigned char 
  1676 ;; Registers used:
  1677 ;;		wreg, status,2, status,0, btemp+1
  1678 ;; Tracked objects:
  1679 ;;		On entry : 0/0
  1680 ;;		On exit  : 0/0
  1681 ;;		Unchanged: 0/0
  1682 ;; Data sizes:     COMMON   BANK0   BANK1   BANK3   BANK2
  1683 ;;      Params:         0       0       1       0       0
  1684 ;;      Locals:         0       0       2       0       0
  1685 ;;      Temps:          0       0       0       0       0
  1686 ;;      Totals:         0       0       3       0       0
  1687 ;;Total ram usage:        3 bytes
  1688 ;; Hardware stack levels used:    1
  1689 ;; Hardware stack levels required when called:    4
  1690 ;; This function calls:
  1691 ;;		Nothing
  1692 ;; This function is called by:
  1693 ;;		_Scheduler_Update
  1694 ;;		_Scheduler_Active
  1695 ;; This function uses a non-reentrant model
  1696 ;;
  1697                           
  1698                           
  1699                           ;psect for function ___bmul
  1700  055D                     ___bmul:
  1701                           
  1702                           ;incstack = 0
  1703                           ; Regs used in ___bmul: [wreg+status,2+status,0+btemp+1]
  1704                           ;___bmul@multiplier stored from wreg
  1705  055D  1683               	bsf	3,5	;RP0=1, select bank1
  1706  055E  1303               	bcf	3,6	;RP1=0, select bank1
  1707  055F  00A2               	movwf	___bmul@multiplier^(0+128)
  1708  0560                     l2307:
  1709  0560  01A1               	clrf	___bmul@product^(0+128)
  1710  0561                     l2309:
  1711  0561  1C22               	btfss	___bmul@multiplier^(0+128),0
  1712  0562  2D64               	goto	u1561
  1713  0563  2D65               	goto	u1560
  1714  0564                     u1561:
  1715  0564  2D69               	goto	l2313
  1716  0565                     u1560:
  1717  0565                     l2311:
  1718  0565  0820               	movf	___bmul@multiplicand^(0+128),w
  1719  0566  00FF               	movwf	btemp+1
  1720  0567  087F               	movf	btemp+1,w
  1721  0568  07A1               	addwf	___bmul@product^(0+128),f
  1722  0569                     l2313:
  1723  0569  1003               	clrc
  1724  056A  0DA0               	rlf	___bmul@multiplicand^(0+128),f
  1725  056B                     l2315:
  1726  056B  1003               	clrc
  1727  056C  0CA2               	rrf	___bmul@multiplier^(0+128),f
  1728  056D                     l2317:
  1729  056D  0822               	movf	___bmul@multiplier^(0+128),w
  1730  056E  1D03               	btfss	3,2
  1731  056F  2D71               	goto	u1571
  1732  0570  2D72               	goto	u1570
  1733  0571                     u1571:
  1734  0571  2D61               	goto	l2309
  1735  0572                     u1570:
  1736  0572                     l2319:
  1737  0572  0821               	movf	___bmul@product^(0+128),w
  1738  0573                     l451:
  1739  0573  0008               	return
  1740  0574                     __end_of___bmul:
  1741                           
  1742                           	psect	text5
  1743  05D7                     __ptext5:	
  1744 ;; *************** function _Scheduler_Task2 *****************
  1745 ;; Defined at:
  1746 ;;		line 19 in file "Scheduler/Task.c"
  1747 ;; Parameters:    Size  Location     Type
  1748 ;;		None
  1749 ;; Auto vars:     Size  Location     Type
  1750 ;;		None
  1751 ;; Return value:  Size  Location     Type
  1752 ;;                  1    wreg      void 
  1753 ;; Registers used:
  1754 ;;		wreg, fsr0l, fsr0h, status,2, status,0, btemp+1, pclath, cstack
  1755 ;; Tracked objects:
  1756 ;;		On entry : 0/0
  1757 ;;		On exit  : 0/0
  1758 ;;		Unchanged: 0/0
  1759 ;; Data sizes:     COMMON   BANK0   BANK1   BANK3   BANK2
  1760 ;;      Params:         0       0       0       0       0
  1761 ;;      Locals:         0       0       0       0       0
  1762 ;;      Temps:          0       0       0       0       0
  1763 ;;      Totals:         0       0       0       0       0
  1764 ;;Total ram usage:        0 bytes
  1765 ;; Hardware stack levels used:    1
  1766 ;; Hardware stack levels required when called:    5
  1767 ;; This function calls:
  1768 ;;		_ModeManager_Update
  1769 ;; This function is called by:
  1770 ;;		_Scheduler_Update
  1771 ;; This function uses a non-reentrant model
  1772 ;;
  1773                           
  1774                           
  1775                           ;psect for function _Scheduler_Task2
  1776  05D7                     _Scheduler_Task2:
  1777  05D7                     l2303:	
  1778                           ;incstack = 0
  1779                           ; Regs used in _Scheduler_Task2: [wreg-fsr0h+status,2+status,0+btemp+1+pclath+cstack]
  1780                           
  1781                           
  1782                           ;Scheduler/Task.c: 21:   ModeManager_Update();
  1783  05D7  120A  118A  23FF  120A  118A  	fcall	_ModeManager_Update
  1784  05DC                     l254:
  1785  05DC  0008               	return
  1786  05DD                     __end_of_Scheduler_Task2:
  1787                           
  1788                           	psect	text6
  1789  05DD                     __ptext6:	
  1790 ;; *************** function _Scheduler_Task1 *****************
  1791 ;; Defined at:
  1792 ;;		line 14 in file "Scheduler/Task.c"
  1793 ;; Parameters:    Size  Location     Type
  1794 ;;		None
  1795 ;; Auto vars:     Size  Location     Type
  1796 ;;		None
  1797 ;; Return value:  Size  Location     Type
  1798 ;;                  1    wreg      void 
  1799 ;; Registers used:
  1800 ;;		wreg, fsr0l, fsr0h, status,2, status,0, btemp+1, pclath, cstack
  1801 ;; Tracked objects:
  1802 ;;		On entry : 0/0
  1803 ;;		On exit  : 0/0
  1804 ;;		Unchanged: 0/0
  1805 ;; Data sizes:     COMMON   BANK0   BANK1   BANK3   BANK2
  1806 ;;      Params:         0       0       0       0       0
  1807 ;;      Locals:         0       0       0       0       0
  1808 ;;      Temps:          0       0       0       0       0
  1809 ;;      Totals:         0       0       0       0       0
  1810 ;;Total ram usage:        0 bytes
  1811 ;; Hardware stack levels used:    1
  1812 ;; Hardware stack levels required when called:    7
  1813 ;; This function calls:
  1814 ;;		_Display_Update
  1815 ;; This function is called by:
  1816 ;;		_Scheduler_Update
  1817 ;; This function uses a non-reentrant model
  1818 ;;
  1819                           
  1820                           
  1821                           ;psect for function _Scheduler_Task1
  1822  05DD                     _Scheduler_Task1:
  1823  05DD                     l2301:	
  1824                           ;incstack = 0
  1825 ;; hardware stack exceeded
  1826                           ; Regs used in _Scheduler_Task1: [wreg-fsr0h+status,2+status,0+btemp+1+pclath+cstack]
  1827                           
  1828                           
  1829                           ;Scheduler/Task.c: 16:  Display_Update();
  1830  05DD  120A  118A  24B0  120A  118A  	fcall	_Display_Update
  1831  05E2                     l251:
  1832  05E2  0008               	return
  1833  05E3                     __end_of_Scheduler_Task1:
  1834                           
  1835                           	psect	text7
  1836  05E3                     __ptext7:	
  1837 ;; *************** function _Scheduler_Task3 *****************
  1838 ;; Defined at:
  1839 ;;		line 24 in file "Scheduler/Task.c"
  1840 ;; Parameters:    Size  Location     Type
  1841 ;;		None
  1842 ;; Auto vars:     Size  Location     Type
  1843 ;;		None
  1844 ;; Return value:  Size  Location     Type
  1845 ;;                  1    wreg      void 
  1846 ;; Registers used:
  1847 ;;		wreg, fsr0l, fsr0h, status,2, status,0, btemp+1, pclath, cstack
  1848 ;; Tracked objects:
  1849 ;;		On entry : 0/0
  1850 ;;		On exit  : 0/0
  1851 ;;		Unchanged: 0/0
  1852 ;; Data sizes:     COMMON   BANK0   BANK1   BANK3   BANK2
  1853 ;;      Params:         0       0       0       0       0
  1854 ;;      Locals:         0       0       0       0       0
  1855 ;;      Temps:          0       0       0       0       0
  1856 ;;      Totals:         0       0       0       0       0
  1857 ;;Total ram usage:        0 bytes
  1858 ;; Hardware stack levels used:    1
  1859 ;; Hardware stack levels required when called:    6
  1860 ;; This function calls:
  1861 ;;		_Clock_Update
  1862 ;; This function is called by:
  1863 ;;		_Scheduler_Update
  1864 ;; This function uses a non-reentrant model
  1865 ;;
  1866                           
  1867                           
  1868                           ;psect for function _Scheduler_Task3
  1869  05E3                     _Scheduler_Task3:
  1870  05E3                     l2305:	
  1871                           ;incstack = 0
  1872                           ; Regs used in _Scheduler_Task3: [wreg-fsr0h+status,2+status,0+btemp+1+pclath+cstack]
  1873                           
  1874                           
  1875                           ;Scheduler/Task.c: 26:   Clock_Update();
  1876  05E3  120A  118A  2485  120A  118A  	fcall	_Clock_Update
  1877  05E8                     l257:
  1878  05E8  0008               	return
  1879  05E9                     __end_of_Scheduler_Task3:
  1880                           
  1881                           	psect	text8
  1882  0485                     __ptext8:	
  1883 ;; *************** function _Clock_Update *****************
  1884 ;; Defined at:
  1885 ;;		line 21 in file "Clock/Clock.c"
  1886 ;; Parameters:    Size  Location     Type
  1887 ;;		None
  1888 ;; Auto vars:     Size  Location     Type
  1889 ;;		None
  1890 ;; Return value:  Size  Location     Type
  1891 ;;                  1    wreg      void 
  1892 ;; Registers used:
  1893 ;;		wreg, fsr0l, fsr0h, status,2, status,0, btemp+1, pclath, cstack
  1894 ;; Tracked objects:
  1895 ;;		On entry : 0/0
  1896 ;;		On exit  : 0/0
  1897 ;;		Unchanged: 0/0
  1898 ;; Data sizes:     COMMON   BANK0   BANK1   BANK3   BANK2
  1899 ;;      Params:         0       0       0       0       0
  1900 ;;      Locals:         0       0       0       0       0
  1901 ;;      Temps:          0       0       2       0       0
  1902 ;;      Totals:         0       0       2       0       0
  1903 ;;Total ram usage:        2 bytes
  1904 ;; Hardware stack levels used:    1
  1905 ;; Hardware stack levels required when called:    5
  1906 ;; This function calls:
  1907 ;;		_Clock_Hour_Setting
  1908 ;;		_Clock_Minutes_Setting
  1909 ;;		_Clock_Normal
  1910 ;; This function is called by:
  1911 ;;		_Scheduler_Task3
  1912 ;; This function uses a non-reentrant model
  1913 ;;
  1914                           
  1915                           
  1916                           ;psect for function _Clock_Update
  1917  0485                     _Clock_Update:
  1918  0485                     l2259:	
  1919                           ;incstack = 0
  1920                           ; Regs used in _Clock_Update: [wreg-fsr0h+status,2+status,0+btemp+1+pclath+cstack]
  1921                           
  1922                           
  1923                           ;Clock/Clock.c: 23:     switch(MODE)
  1924  0485  2C98               	goto	l2269
  1925  0486                     l2261:
  1926                           
  1927                           ;Clock/Clock.c: 26:                               Clock_Normal();
  1928  0486  120A  118A  24DB  120A  118A  	fcall	_Clock_Normal
  1929                           
  1930                           ;Clock/Clock.c: 27:                               break;
  1931  048B  2CAF               	goto	l280
  1932  048C                     l2263:
  1933                           
  1934                           ;Clock/Clock.c: 30:                               Clock_Hour_Setting();
  1935  048C  120A  118A  242E  120A  118A  	fcall	_Clock_Hour_Setting
  1936                           
  1937                           ;Clock/Clock.c: 31:                               break;
  1938  0491  2CAF               	goto	l280
  1939  0492                     l2265:
  1940                           
  1941                           ;Clock/Clock.c: 34:                               Clock_Minutes_Setting();
  1942  0492  120A  118A  236B  120A  118A  	fcall	_Clock_Minutes_Setting
  1943                           
  1944                           ;Clock/Clock.c: 35:                               break;
  1945  0497  2CAF               	goto	l280
  1946  0498                     l2269:
  1947  0498  1283               	bcf	3,5	;RP0=0, select bank0
  1948  0499  1303               	bcf	3,6	;RP1=0, select bank0
  1949  049A  084A               	movf	_MODE,w
  1950  049B  1683               	bsf	3,5	;RP0=1, select bank1
  1951  049C  1303               	bcf	3,6	;RP1=0, select bank1
  1952  049D  00A0               	movwf	??_Clock_Update^(0+128)
  1953  049E  01A1               	clrf	(??_Clock_Update^(0+128)+1)
  1954                           
  1955                           ; Switch on 2 bytes has been partitioned into a top level switch of size 1, and 1 sub-sw
      +                          itches
  1956                           ; Switch size 1, requested type "simple"
  1957                           ; Number of cases is 1, Range of values is 0 to 0
  1958                           ; switch strategies available:
  1959                           ; Name         Instructions Cycles
  1960                           ; simple_byte            4     3 (average)
  1961                           ; direct_byte           11     8 (fixed)
  1962                           ; jumptable            260     6 (fixed)
  1963                           ;	Chosen strategy is simple_byte
  1964  049F  0821               	movf	(??_Clock_Update+1)^(0+128),w
  1965  04A0  3A00               	xorlw	0	; case 0
  1966  04A1  1903               	skipnz
  1967  04A2  2CA4               	goto	l2641
  1968  04A3  2CAF               	goto	l280
  1969  04A4                     l2641:
  1970                           
  1971                           ; Switch size 1, requested type "simple"
  1972                           ; Number of cases is 3, Range of values is 0 to 2
  1973                           ; switch strategies available:
  1974                           ; Name         Instructions Cycles
  1975                           ; simple_byte           10     6 (average)
  1976                           ; direct_byte           17     8 (fixed)
  1977                           ; jumptable            260     6 (fixed)
  1978                           ;	Chosen strategy is simple_byte
  1979  04A4  0820               	movf	??_Clock_Update^(0+128),w
  1980  04A5  3A00               	xorlw	0	; case 0
  1981  04A6  1903               	skipnz
  1982  04A7  2C86               	goto	l2261
  1983  04A8  3A01               	xorlw	1	; case 1
  1984  04A9  1903               	skipnz
  1985  04AA  2C8C               	goto	l2263
  1986  04AB  3A03               	xorlw	3	; case 2
  1987  04AC  1903               	skipnz
  1988  04AD  2C92               	goto	l2265
  1989  04AE  2CAF               	goto	l280
  1990  04AF                     l280:
  1991  04AF  0008               	return
  1992  04B0                     __end_of_Clock_Update:
  1993                           
  1994                           	psect	text9
  1995  04DB                     __ptext9:	
  1996 ;; *************** function _Clock_Normal *****************
  1997 ;; Defined at:
  1998 ;;		line 41 in file "Clock/Clock.c"
  1999 ;; Parameters:    Size  Location     Type
  2000 ;;		None
  2001 ;; Auto vars:     Size  Location     Type
  2002 ;;		None
  2003 ;; Return value:  Size  Location     Type
  2004 ;;                  1    wreg      void 
  2005 ;; Registers used:
  2006 ;;		wreg, status,2, status,0, btemp+1
  2007 ;; Tracked objects:
  2008 ;;		On entry : 0/0
  2009 ;;		On exit  : 0/0
  2010 ;;		Unchanged: 0/0
  2011 ;; Data sizes:     COMMON   BANK0   BANK1   BANK3   BANK2
  2012 ;;      Params:         0       0       0       0       0
  2013 ;;      Locals:         0       0       0       0       0
  2014 ;;      Temps:          0       0       0       0       0
  2015 ;;      Totals:         0       0       0       0       0
  2016 ;;Total ram usage:        0 bytes
  2017 ;; Hardware stack levels used:    1
  2018 ;; Hardware stack levels required when called:    4
  2019 ;; This function calls:
  2020 ;;		Nothing
  2021 ;; This function is called by:
  2022 ;;		_Clock_Update
  2023 ;; This function uses a non-reentrant model
  2024 ;;
  2025                           
  2026                           
  2027                           ;psect for function _Clock_Normal
  2028  04DB                     _Clock_Normal:
  2029  04DB                     l2167:	
  2030                           ;incstack = 0
  2031                           ; Regs used in _Clock_Normal: [wreg+status,2+status,0+btemp+1]
  2032                           
  2033                           
  2034                           ;Clock/Clock.c: 44:     Clock.Second++;
  2035  04DB  3001               	movlw	1
  2036  04DC  00FF               	movwf	btemp+1
  2037  04DD  087F               	movf	btemp+1,w
  2038  04DE  1283               	bcf	3,5	;RP0=0, select bank0
  2039  04DF  1303               	bcf	3,6	;RP1=0, select bank0
  2040  04E0  07C0               	addwf	_Clock,f
  2041  04E1                     l2169:
  2042                           
  2043                           ;Clock/Clock.c: 46:     if(Clock.Second==60)
  2044  04E1  303C               	movlw	60
  2045  04E2  0640               	xorwf	_Clock,w
  2046  04E3  1D03               	btfss	3,2
  2047  04E4  2CE6               	goto	u1371
  2048  04E5  2CE7               	goto	u1370
  2049  04E6                     u1371:
  2050  04E6  2CEC               	goto	l2175
  2051  04E7                     u1370:
  2052  04E7                     l2171:
  2053                           
  2054                           ;Clock/Clock.c: 47:     {;Clock/Clock.c: 48:       Clock.Minutes++;
  2055  04E7  3001               	movlw	1
  2056  04E8  00FF               	movwf	btemp+1
  2057  04E9  087F               	movf	btemp+1,w
  2058  04EA  07C1               	addwf	_Clock+1,f
  2059  04EB                     l2173:
  2060                           
  2061                           ;Clock/Clock.c: 49:       Clock.Second=0;
  2062  04EB  01C0               	clrf	_Clock
  2063  04EC                     l2175:
  2064                           
  2065                           ;Clock/Clock.c: 52:     if(Clock.Minutes==60)
  2066  04EC  303C               	movlw	60
  2067  04ED  0641               	xorwf	_Clock+1,w
  2068  04EE  1D03               	btfss	3,2
  2069  04EF  2CF1               	goto	u1381
  2070  04F0  2CF2               	goto	u1380
  2071  04F1                     u1381:
  2072  04F1  2CF7               	goto	l2181
  2073  04F2                     u1380:
  2074  04F2                     l2177:
  2075                           
  2076                           ;Clock/Clock.c: 53:     {;Clock/Clock.c: 54:       Clock.Hours++;
  2077  04F2  3001               	movlw	1
  2078  04F3  00FF               	movwf	btemp+1
  2079  04F4  087F               	movf	btemp+1,w
  2080  04F5  07C2               	addwf	_Clock+2,f
  2081  04F6                     l2179:
  2082                           
  2083                           ;Clock/Clock.c: 55:       Clock.Minutes=0;
  2084  04F6  01C1               	clrf	_Clock+1
  2085  04F7                     l2181:
  2086                           
  2087                           ;Clock/Clock.c: 57:     if(Clock.Hours==24)
  2088  04F7  3018               	movlw	24
  2089  04F8  0642               	xorwf	_Clock+2,w
  2090  04F9  1D03               	btfss	3,2
  2091  04FA  2CFC               	goto	u1391
  2092  04FB  2CFD               	goto	u1390
  2093  04FC                     u1391:
  2094  04FC  2CFE               	goto	l286
  2095  04FD                     u1390:
  2096  04FD                     l2183:
  2097                           
  2098                           ;Clock/Clock.c: 58:     {;Clock/Clock.c: 59:       Clock.Hours=0;
  2099  04FD  01C2               	clrf	_Clock+2
  2100  04FE                     l286:
  2101  04FE  0008               	return
  2102  04FF                     __end_of_Clock_Normal:
  2103                           
  2104                           	psect	text10
  2105  036B                     __ptext10:	
  2106 ;; *************** function _Clock_Minutes_Setting *****************
  2107 ;; Defined at:
  2108 ;;		line 95 in file "Clock/Clock.c"
  2109 ;; Parameters:    Size  Location     Type
  2110 ;;		None
  2111 ;; Auto vars:     Size  Location     Type
  2112 ;;		None
  2113 ;; Return value:  Size  Location     Type
  2114 ;;                  1    wreg      void 
  2115 ;; Registers used:
  2116 ;;		wreg, status,2, status,0, btemp+1
  2117 ;; Tracked objects:
  2118 ;;		On entry : 0/0
  2119 ;;		On exit  : 0/0
  2120 ;;		Unchanged: 0/0
  2121 ;; Data sizes:     COMMON   BANK0   BANK1   BANK3   BANK2
  2122 ;;      Params:         0       0       0       0       0
  2123 ;;      Locals:         0       0       0       0       0
  2124 ;;      Temps:          0       0       0       0       0
  2125 ;;      Totals:         0       0       0       0       0
  2126 ;;Total ram usage:        0 bytes
  2127 ;; Hardware stack levels used:    1
  2128 ;; Hardware stack levels required when called:    4
  2129 ;; This function calls:
  2130 ;;		Nothing
  2131 ;; This function is called by:
  2132 ;;		_Clock_Update
  2133 ;; This function uses a non-reentrant model
  2134 ;;
  2135                           
  2136                           
  2137                           ;psect for function _Clock_Minutes_Setting
  2138  036B                     _Clock_Minutes_Setting:
  2139  036B                     l2203:	
  2140                           ;incstack = 0
  2141                           ; Regs used in _Clock_Minutes_Setting: [wreg+status,2+status,0+btemp+1]
  2142                           
  2143                           
  2144                           ;Clock/Clock.c: 97:   if(ButtonsFlag.UpButton_Flag&&!ButtonsFlag.DownButton_Flag)
  2145  036B  1283               	bcf	3,5	;RP0=0, select bank0
  2146  036C  1303               	bcf	3,6	;RP1=0, select bank0
  2147  036D  1C49               	btfss	_ButtonsFlag,0
  2148  036E  2B70               	goto	u1461
  2149  036F  2B71               	goto	u1460
  2150  0370                     u1461:
  2151  0370  2B86               	goto	l299
  2152  0371                     u1460:
  2153  0371                     l2205:
  2154  0371  18C9               	btfsc	_ButtonsFlag,1
  2155  0372  2B74               	goto	u1471
  2156  0373  2B75               	goto	u1470
  2157  0374                     u1471:
  2158  0374  2B86               	goto	l299
  2159  0375                     u1470:
  2160  0375                     l2207:
  2161                           
  2162                           ;Clock/Clock.c: 98:     {;Clock/Clock.c: 99:         if(Clock.Minutes==59)
  2163  0375  303B               	movlw	59
  2164  0376  0641               	xorwf	_Clock+1,w
  2165  0377  1D03               	btfss	3,2
  2166  0378  2B7A               	goto	u1481
  2167  0379  2B7B               	goto	u1480
  2168  037A                     u1481:
  2169  037A  2B81               	goto	l2213
  2170  037B                     u1480:
  2171  037B                     l2209:
  2172                           
  2173                           ;Clock/Clock.c: 100:         {;Clock/Clock.c: 101:             Clock.Hours++;
  2174  037B  3001               	movlw	1
  2175  037C  00FF               	movwf	btemp+1
  2176  037D  087F               	movf	btemp+1,w
  2177  037E  07C2               	addwf	_Clock+2,f
  2178  037F                     l2211:
  2179                           
  2180                           ;Clock/Clock.c: 102:             Clock.Minutes=0;
  2181  037F  01C1               	clrf	_Clock+1
  2182                           
  2183                           ;Clock/Clock.c: 103:         }
  2184  0380  2B9C               	goto	l306
  2185  0381                     l2213:
  2186                           
  2187                           ;Clock/Clock.c: 105:         {;Clock/Clock.c: 106:             Clock.Minutes++;
  2188  0381  3001               	movlw	1
  2189  0382  00FF               	movwf	btemp+1
  2190  0383  087F               	movf	btemp+1,w
  2191  0384  07C1               	addwf	_Clock+1,f
  2192  0385  2B9C               	goto	l306
  2193  0386                     l299:	
  2194                           ;Clock/Clock.c: 110:     else if(ButtonsFlag.DownButton_Flag&&ButtonsFlag.UpButton_Flag)
  2195                           
  2196  0386  1CC9               	btfss	_ButtonsFlag,1
  2197  0387  2B89               	goto	u1491
  2198  0388  2B8A               	goto	u1490
  2199  0389                     u1491:
  2200  0389  2B9C               	goto	l306
  2201  038A                     u1490:
  2202  038A                     l2215:
  2203  038A  1C49               	btfss	_ButtonsFlag,0
  2204  038B  2B8D               	goto	u1501
  2205  038C  2B8E               	goto	u1500
  2206  038D                     u1501:
  2207  038D  2B9C               	goto	l306
  2208  038E                     u1500:
  2209  038E                     l2217:
  2210                           
  2211                           ;Clock/Clock.c: 111:     {;Clock/Clock.c: 112:         if(Clock.Minutes==0)
  2212  038E  0841               	movf	_Clock+1,w
  2213  038F  1D03               	btfss	3,2
  2214  0390  2B92               	goto	u1511
  2215  0391  2B93               	goto	u1510
  2216  0392                     u1511:
  2217  0392  2B9A               	goto	l2223
  2218  0393                     u1510:
  2219  0393                     l2219:
  2220                           
  2221                           ;Clock/Clock.c: 113:         {;Clock/Clock.c: 114:             Clock.Hours--;
  2222  0393  3001               	movlw	1
  2223  0394  02C2               	subwf	_Clock+2,f
  2224  0395                     l2221:
  2225                           
  2226                           ;Clock/Clock.c: 115:             Clock.Minutes=59;
  2227  0395  303B               	movlw	59
  2228  0396  00FF               	movwf	btemp+1
  2229  0397  087F               	movf	btemp+1,w
  2230  0398  00C1               	movwf	_Clock+1
  2231                           
  2232                           ;Clock/Clock.c: 116:         }
  2233  0399  2B9C               	goto	l306
  2234  039A                     l2223:
  2235                           
  2236                           ;Clock/Clock.c: 118:         {;Clock/Clock.c: 119:             Clock.Minutes--;
  2237  039A  3001               	movlw	1
  2238  039B  02C1               	subwf	_Clock+1,f
  2239  039C                     l306:
  2240  039C  0008               	return
  2241  039D                     __end_of_Clock_Minutes_Setting:
  2242                           
  2243                           	psect	text11
  2244  042E                     __ptext11:	
  2245 ;; *************** function _Clock_Hour_Setting *****************
  2246 ;; Defined at:
  2247 ;;		line 65 in file "Clock/Clock.c"
  2248 ;; Parameters:    Size  Location     Type
  2249 ;;		None
  2250 ;; Auto vars:     Size  Location     Type
  2251 ;;		None
  2252 ;; Return value:  Size  Location     Type
  2253 ;;                  1    wreg      void 
  2254 ;; Registers used:
  2255 ;;		wreg, status,2, status,0, btemp+1
  2256 ;; Tracked objects:
  2257 ;;		On entry : 0/0
  2258 ;;		On exit  : 0/0
  2259 ;;		Unchanged: 0/0
  2260 ;; Data sizes:     COMMON   BANK0   BANK1   BANK3   BANK2
  2261 ;;      Params:         0       0       0       0       0
  2262 ;;      Locals:         0       0       0       0       0
  2263 ;;      Temps:          0       0       0       0       0
  2264 ;;      Totals:         0       0       0       0       0
  2265 ;;Total ram usage:        0 bytes
  2266 ;; Hardware stack levels used:    1
  2267 ;; Hardware stack levels required when called:    4
  2268 ;; This function calls:
  2269 ;;		Nothing
  2270 ;; This function is called by:
  2271 ;;		_Clock_Update
  2272 ;; This function uses a non-reentrant model
  2273 ;;
  2274                           
  2275                           
  2276                           ;psect for function _Clock_Hour_Setting
  2277  042E                     _Clock_Hour_Setting:
  2278  042E                     l2185:	
  2279                           ;incstack = 0
  2280                           ; Regs used in _Clock_Hour_Setting: [wreg+status,2+status,0+btemp+1]
  2281                           
  2282                           
  2283                           ;Clock/Clock.c: 67:     if(ButtonsFlag.UpButton_Flag&&!ButtonsFlag.DownButton_Flag)
  2284  042E  1283               	bcf	3,5	;RP0=0, select bank0
  2285  042F  1303               	bcf	3,6	;RP1=0, select bank0
  2286  0430  1C49               	btfss	_ButtonsFlag,0
  2287  0431  2C33               	goto	u1401
  2288  0432  2C34               	goto	u1400
  2289  0433                     u1401:
  2290  0433  2C45               	goto	l289
  2291  0434                     u1400:
  2292  0434                     l2187:
  2293  0434  18C9               	btfsc	_ButtonsFlag,1
  2294  0435  2C37               	goto	u1411
  2295  0436  2C38               	goto	u1410
  2296  0437                     u1411:
  2297  0437  2C45               	goto	l289
  2298  0438                     u1410:
  2299  0438                     l2189:
  2300                           
  2301                           ;Clock/Clock.c: 68:     {;Clock/Clock.c: 69:         if(Clock.Hours==23)
  2302  0438  3017               	movlw	23
  2303  0439  0642               	xorwf	_Clock+2,w
  2304  043A  1D03               	btfss	3,2
  2305  043B  2C3D               	goto	u1421
  2306  043C  2C3E               	goto	u1420
  2307  043D                     u1421:
  2308  043D  2C40               	goto	l2193
  2309  043E                     u1420:
  2310  043E                     l2191:
  2311                           
  2312                           ;Clock/Clock.c: 70:         {;Clock/Clock.c: 71:             Clock.Hours=0;
  2313  043E  01C2               	clrf	_Clock+2
  2314                           
  2315                           ;Clock/Clock.c: 72:         }
  2316  043F  2C59               	goto	l296
  2317  0440                     l2193:
  2318                           
  2319                           ;Clock/Clock.c: 74:         {;Clock/Clock.c: 75:             Clock.Hours++;
  2320  0440  3001               	movlw	1
  2321  0441  00FF               	movwf	btemp+1
  2322  0442  087F               	movf	btemp+1,w
  2323  0443  07C2               	addwf	_Clock+2,f
  2324  0444  2C59               	goto	l296
  2325  0445                     l289:	
  2326                           ;Clock/Clock.c: 79:     else if(ButtonsFlag.DownButton_Flag&&ButtonsFlag.UpButton_Flag)
  2327                           
  2328  0445  1CC9               	btfss	_ButtonsFlag,1
  2329  0446  2C48               	goto	u1431
  2330  0447  2C49               	goto	u1430
  2331  0448                     u1431:
  2332  0448  2C59               	goto	l296
  2333  0449                     u1430:
  2334  0449                     l2195:
  2335  0449  1C49               	btfss	_ButtonsFlag,0
  2336  044A  2C4C               	goto	u1441
  2337  044B  2C4D               	goto	u1440
  2338  044C                     u1441:
  2339  044C  2C59               	goto	l296
  2340  044D                     u1440:
  2341  044D                     l2197:
  2342                           
  2343                           ;Clock/Clock.c: 80:     {;Clock/Clock.c: 81:          if(Clock.Hours==0)
  2344  044D  0842               	movf	_Clock+2,w
  2345  044E  1D03               	btfss	3,2
  2346  044F  2C51               	goto	u1451
  2347  0450  2C52               	goto	u1450
  2348  0451                     u1451:
  2349  0451  2C57               	goto	l2201
  2350  0452                     u1450:
  2351  0452                     l2199:
  2352                           
  2353                           ;Clock/Clock.c: 82:         {;Clock/Clock.c: 83:             Clock.Hours=23;
  2354  0452  3017               	movlw	23
  2355  0453  00FF               	movwf	btemp+1
  2356  0454  087F               	movf	btemp+1,w
  2357  0455  00C2               	movwf	_Clock+2
  2358                           
  2359                           ;Clock/Clock.c: 84:         }
  2360  0456  2C59               	goto	l296
  2361  0457                     l2201:
  2362                           
  2363                           ;Clock/Clock.c: 86:         {;Clock/Clock.c: 87:          Clock.Hours--;
  2364  0457  3001               	movlw	1
  2365  0458  02C2               	subwf	_Clock+2,f
  2366  0459                     l296:
  2367  0459  0008               	return
  2368  045A                     __end_of_Clock_Hour_Setting:
  2369                           
  2370                           	psect	text12
  2371  03FF                     __ptext12:	
  2372 ;; *************** function _ModeManager_Update *****************
  2373 ;; Defined at:
  2374 ;;		line 17 in file "ModeManger/ModeManager.c"
  2375 ;; Parameters:    Size  Location     Type
  2376 ;;		None
  2377 ;; Auto vars:     Size  Location     Type
  2378 ;;		None
  2379 ;; Return value:  Size  Location     Type
  2380 ;;                  1    wreg      void 
  2381 ;; Registers used:
  2382 ;;		wreg, fsr0l, fsr0h, status,2, status,0, btemp+1
  2383 ;; Tracked objects:
  2384 ;;		On entry : 0/0
  2385 ;;		On exit  : 0/0
  2386 ;;		Unchanged: 0/0
  2387 ;; Data sizes:     COMMON   BANK0   BANK1   BANK3   BANK2
  2388 ;;      Params:         0       0       0       0       0
  2389 ;;      Locals:         0       0       0       0       0
  2390 ;;      Temps:          0       0       2       0       0
  2391 ;;      Totals:         0       0       2       0       0
  2392 ;;Total ram usage:        2 bytes
  2393 ;; Hardware stack levels used:    1
  2394 ;; Hardware stack levels required when called:    4
  2395 ;; This function calls:
  2396 ;;		Nothing
  2397 ;; This function is called by:
  2398 ;;		_Scheduler_Task2
  2399 ;; This function uses a non-reentrant model
  2400 ;;
  2401                           
  2402                           
  2403                           ;psect for function _ModeManager_Update
  2404  03FF                     _ModeManager_Update:
  2405  03FF                     l2243:	
  2406                           ;incstack = 0
  2407                           ; Regs used in _ModeManager_Update: [wreg-fsr0h+status,2+status,0+btemp+1]
  2408                           
  2409                           
  2410                           ;ModeManger/ModeManager.c: 19:     if(ButtonsFlag.SettingButton_Flag)
  2411  03FF  1283               	bcf	3,5	;RP0=0, select bank0
  2412  0400  1303               	bcf	3,6	;RP1=0, select bank0
  2413  0401  1D49               	btfss	_ButtonsFlag,2
  2414  0402  2C04               	goto	u1521
  2415  0403  2C05               	goto	u1520
  2416  0404                     u1521:
  2417  0404  2C2D               	goto	l212
  2418  0405                     u1520:
  2419  0405  2C16               	goto	l2253
  2420  0406                     l208:	
  2421                           ;ModeManger/ModeManager.c: 22:         {;ModeManger/ModeManager.c: 23:             case 
      +                          Normal_Mode:
  2422                           
  2423                           
  2424                           ;ModeManger/ModeManager.c: 24:                          MODE=Hour_Mode;
  2425  0406  1283               	bcf	3,5	;RP0=0, select bank0
  2426  0407  1303               	bcf	3,6	;RP1=0, select bank0
  2427  0408  01CA               	clrf	_MODE
  2428  0409  0ACA               	incf	_MODE,f
  2429                           
  2430                           ;ModeManger/ModeManager.c: 25:                          break;
  2431  040A  2C2B               	goto	l209
  2432  040B                     l2247:
  2433                           
  2434                           ;ModeManger/ModeManager.c: 28:                          MODE=Minutes_Mode;
  2435  040B  3002               	movlw	2
  2436  040C  00FF               	movwf	btemp+1
  2437  040D  087F               	movf	btemp+1,w
  2438  040E  1283               	bcf	3,5	;RP0=0, select bank0
  2439  040F  1303               	bcf	3,6	;RP1=0, select bank0
  2440  0410  00CA               	movwf	_MODE
  2441                           
  2442                           ;ModeManger/ModeManager.c: 29:                          break;
  2443  0411  2C2B               	goto	l209
  2444  0412                     l2249:
  2445                           
  2446                           ;ModeManger/ModeManager.c: 32:                          MODE=Normal_Mode;
  2447  0412  1283               	bcf	3,5	;RP0=0, select bank0
  2448  0413  1303               	bcf	3,6	;RP1=0, select bank0
  2449  0414  01CA               	clrf	_MODE
  2450                           
  2451                           ;ModeManger/ModeManager.c: 33:                          break;
  2452  0415  2C2B               	goto	l209
  2453  0416                     l2253:
  2454  0416  084A               	movf	_MODE,w
  2455  0417  1683               	bsf	3,5	;RP0=1, select bank1
  2456  0418  1303               	bcf	3,6	;RP1=0, select bank1
  2457  0419  00A0               	movwf	??_ModeManager_Update^(0+128)
  2458  041A  01A1               	clrf	(??_ModeManager_Update^(0+128)+1)
  2459                           
  2460                           ; Switch on 2 bytes has been partitioned into a top level switch of size 1, and 1 sub-sw
      +                          itches
  2461                           ; Switch size 1, requested type "simple"
  2462                           ; Number of cases is 1, Range of values is 0 to 0
  2463                           ; switch strategies available:
  2464                           ; Name         Instructions Cycles
  2465                           ; simple_byte            4     3 (average)
  2466                           ; direct_byte           11     8 (fixed)
  2467                           ; jumptable            260     6 (fixed)
  2468                           ;	Chosen strategy is simple_byte
  2469  041B  0821               	movf	(??_ModeManager_Update+1)^(0+128),w
  2470  041C  3A00               	xorlw	0	; case 0
  2471  041D  1903               	skipnz
  2472  041E  2C20               	goto	l2643
  2473  041F  2C2B               	goto	l209
  2474  0420                     l2643:
  2475                           
  2476                           ; Switch size 1, requested type "simple"
  2477                           ; Number of cases is 3, Range of values is 0 to 2
  2478                           ; switch strategies available:
  2479                           ; Name         Instructions Cycles
  2480                           ; simple_byte           10     6 (average)
  2481                           ; direct_byte           17     8 (fixed)
  2482                           ; jumptable            260     6 (fixed)
  2483                           ;	Chosen strategy is simple_byte
  2484  0420  0820               	movf	??_ModeManager_Update^(0+128),w
  2485  0421  3A00               	xorlw	0	; case 0
  2486  0422  1903               	skipnz
  2487  0423  2C06               	goto	l208
  2488  0424  3A01               	xorlw	1	; case 1
  2489  0425  1903               	skipnz
  2490  0426  2C0B               	goto	l2247
  2491  0427  3A03               	xorlw	3	; case 2
  2492  0428  1903               	skipnz
  2493  0429  2C12               	goto	l2249
  2494  042A  2C2B               	goto	l209
  2495  042B                     l209:
  2496                           
  2497                           ;ModeManger/ModeManager.c: 35:         ButtonsFlag.SettingButton_Flag=0;
  2498  042B  1283               	bcf	3,5	;RP0=0, select bank0
  2499  042C  1149               	bcf	_ButtonsFlag,2
  2500  042D                     l212:
  2501  042D  0008               	return
  2502  042E                     __end_of_ModeManager_Update:
  2503                           
  2504                           	psect	text13
  2505  04B0                     __ptext13:	
  2506 ;; *************** function _Display_Update *****************
  2507 ;; Defined at:
  2508 ;;		line 32 in file "Display/Display.c"
  2509 ;; Parameters:    Size  Location     Type
  2510 ;;		None
  2511 ;; Auto vars:     Size  Location     Type
  2512 ;;		None
  2513 ;; Return value:  Size  Location     Type
  2514 ;;                  1    wreg      void 
  2515 ;; Registers used:
  2516 ;;		wreg, fsr0l, fsr0h, status,2, status,0, btemp+1, pclath, cstack
  2517 ;; Tracked objects:
  2518 ;;		On entry : 0/0
  2519 ;;		On exit  : 0/0
  2520 ;;		Unchanged: 0/0
  2521 ;; Data sizes:     COMMON   BANK0   BANK1   BANK3   BANK2
  2522 ;;      Params:         0       0       0       0       0
  2523 ;;      Locals:         0       0       0       0       0
  2524 ;;      Temps:          0       0       2       0       0
  2525 ;;      Totals:         0       0       2       0       0
  2526 ;;Total ram usage:        2 bytes
  2527 ;; Hardware stack levels used:    1
  2528 ;; Hardware stack levels required when called:    6
  2529 ;; This function calls:
  2530 ;;		_Display_Hour_Setting
  2531 ;;		_Display_Minutes_Setting
  2532 ;;		_Display_Normal
  2533 ;; This function is called by:
  2534 ;;		_Scheduler_Task1
  2535 ;; This function uses a non-reentrant model
  2536 ;;
  2537                           
  2538                           
  2539                           ;psect for function _Display_Update
  2540  04B0                     _Display_Update:
  2541  04B0                     l2225:	
  2542                           ;incstack = 0
  2543 ;; hardware stack exceeded
  2544                           ; Regs used in _Display_Update: [wreg-fsr0h+status,2+status,0+btemp+1+pclath+cstack]
  2545                           
  2546                           
  2547                           ;Display/Display.c: 34:    switch(MODE)
  2548  04B0  2CC3               	goto	l2235
  2549  04B1                     l2227:
  2550                           
  2551                           ;Display/Display.c: 37:                               Display_Normal();
  2552  04B1  120A  118A  2521  120A  118A  	fcall	_Display_Normal
  2553                           
  2554                           ;Display/Display.c: 38:                               break;
  2555  04B6  2CDA               	goto	l172
  2556  04B7                     l2229:
  2557                           
  2558                           ;Display/Display.c: 41:                               Display_Hour_Setting();
  2559  04B7  120A  118A  25FA  120A  118A  	fcall	_Display_Hour_Setting
  2560                           
  2561                           ;Display/Display.c: 42:                               break;
  2562  04BC  2CDA               	goto	l172
  2563  04BD                     l2231:
  2564                           
  2565                           ;Display/Display.c: 45:                               Display_Minutes_Setting();
  2566  04BD  120A  118A  25F9  120A  118A  	fcall	_Display_Minutes_Setting
  2567                           
  2568                           ;Display/Display.c: 46:                               break;
  2569  04C2  2CDA               	goto	l172
  2570  04C3                     l2235:
  2571  04C3  1283               	bcf	3,5	;RP0=0, select bank0
  2572  04C4  1303               	bcf	3,6	;RP1=0, select bank0
  2573  04C5  084A               	movf	_MODE,w
  2574  04C6  1683               	bsf	3,5	;RP0=1, select bank1
  2575  04C7  1303               	bcf	3,6	;RP1=0, select bank1
  2576  04C8  00A3               	movwf	??_Display_Update^(0+128)
  2577  04C9  01A4               	clrf	(??_Display_Update^(0+128)+1)
  2578                           
  2579                           ; Switch on 2 bytes has been partitioned into a top level switch of size 1, and 1 sub-sw
      +                          itches
  2580                           ; Switch size 1, requested type "simple"
  2581                           ; Number of cases is 1, Range of values is 0 to 0
  2582                           ; switch strategies available:
  2583                           ; Name         Instructions Cycles
  2584                           ; simple_byte            4     3 (average)
  2585                           ; direct_byte           11     8 (fixed)
  2586                           ; jumptable            260     6 (fixed)
  2587                           ;	Chosen strategy is simple_byte
  2588  04CA  0824               	movf	(??_Display_Update+1)^(0+128),w
  2589  04CB  3A00               	xorlw	0	; case 0
  2590  04CC  1903               	skipnz
  2591  04CD  2CCF               	goto	l2645
  2592  04CE  2CDA               	goto	l172
  2593  04CF                     l2645:
  2594                           
  2595                           ; Switch size 1, requested type "simple"
  2596                           ; Number of cases is 3, Range of values is 0 to 2
  2597                           ; switch strategies available:
  2598                           ; Name         Instructions Cycles
  2599                           ; simple_byte           10     6 (average)
  2600                           ; direct_byte           17     8 (fixed)
  2601                           ; jumptable            260     6 (fixed)
  2602                           ;	Chosen strategy is simple_byte
  2603  04CF  0823               	movf	??_Display_Update^(0+128),w
  2604  04D0  3A00               	xorlw	0	; case 0
  2605  04D1  1903               	skipnz
  2606  04D2  2CB1               	goto	l2227
  2607  04D3  3A01               	xorlw	1	; case 1
  2608  04D4  1903               	skipnz
  2609  04D5  2CB7               	goto	l2229
  2610  04D6  3A03               	xorlw	3	; case 2
  2611  04D7  1903               	skipnz
  2612  04D8  2CBD               	goto	l2231
  2613  04D9  2CDA               	goto	l172
  2614  04DA                     l172:
  2615  04DA  0008               	return
  2616  04DB                     __end_of_Display_Update:
  2617                           
  2618                           	psect	text14
  2619  0521                     __ptext14:	
  2620 ;; *************** function _Display_Normal *****************
  2621 ;; Defined at:
  2622 ;;		line 54 in file "Display/Display.c"
  2623 ;; Parameters:    Size  Location     Type
  2624 ;;		None
  2625 ;; Auto vars:     Size  Location     Type
  2626 ;;		None
  2627 ;; Return value:  Size  Location     Type
  2628 ;;                  1    wreg      void 
  2629 ;; Registers used:
  2630 ;;		wreg, fsr0l, fsr0h, status,2, status,0, btemp+1, pclath, cstack
  2631 ;; Tracked objects:
  2632 ;;		On entry : 0/0
  2633 ;;		On exit  : 0/0
  2634 ;;		Unchanged: 0/0
  2635 ;; Data sizes:     COMMON   BANK0   BANK1   BANK3   BANK2
  2636 ;;      Params:         0       0       0       0       0
  2637 ;;      Locals:         0       0       0       0       0
  2638 ;;      Temps:          0       0       0       0       0
  2639 ;;      Totals:         0       0       0       0       0
  2640 ;;Total ram usage:        0 bytes
  2641 ;; Hardware stack levels used:    1
  2642 ;; Hardware stack levels required when called:    5
  2643 ;; This function calls:
  2644 ;;		_SSD_DigitSelector
  2645 ;;		_SSD_Display
  2646 ;; This function is called by:
  2647 ;;		_Display_Update
  2648 ;; This function uses a non-reentrant model
  2649 ;;
  2650                           
  2651                           
  2652                           ;psect for function _Display_Normal
  2653  0521                     _Display_Normal:
  2654  0521                     l2157:	
  2655                           ;incstack = 0
  2656 ;; hardware stack exceeded
  2657                           ; Regs used in _Display_Normal: [wreg-fsr0h+status,2+status,0+btemp+1+pclath+cstack]
  2658                           
  2659                           
  2660                           ;Display/Display.c: 56:     Display^=1;
  2661  0521  3001               	movlw	1
  2662  0522  00FF               	movwf	btemp+1
  2663  0523  087F               	movf	btemp+1,w
  2664  0524  1283               	bcf	3,5	;RP0=0, select bank0
  2665  0525  1303               	bcf	3,6	;RP1=0, select bank0
  2666  0526  06CB               	xorwf	_Display,f
  2667  0527                     l2159:
  2668                           
  2669                           ;Display/Display.c: 58:     if(Display==Minutes)
  2670  0527  084B               	movf	_Display,w
  2671  0528  1D03               	btfss	3,2
  2672  0529  2D2B               	goto	u1361
  2673  052A  2D2C               	goto	u1360
  2674  052B                     u1361:
  2675  052B  2D33               	goto	l2163
  2676  052C                     u1360:
  2677  052C                     l2161:
  2678                           
  2679                           ;Display/Display.c: 59:     {;Display/Display.c: 60:         SSD_Display(Clock.Minutes);
  2680  052C  0841               	movf	_Clock+1,w
  2681  052D  120A  118A  225B  120A  118A  	fcall	_SSD_Display
  2682                           
  2683                           ;Display/Display.c: 61:     }
  2684  0532  2D39               	goto	l2165
  2685  0533                     l2163:
  2686                           
  2687                           ;Display/Display.c: 63:     {;Display/Display.c: 64:         SSD_Display(Clock.Hours);
  2688  0533  0842               	movf	_Clock+2,w
  2689  0534  120A  118A  225B  120A  118A  	fcall	_SSD_Display
  2690  0539                     l2165:
  2691                           
  2692                           ;Display/Display.c: 66:    SSD_DigitSelector();
  2693  0539  120A  118A  21F9  120A  118A  	fcall	_SSD_DigitSelector
  2694  053E                     l177:
  2695  053E  0008               	return
  2696  053F                     __end_of_Display_Normal:
  2697                           
  2698                           	psect	text15
  2699  025B                     __ptext15:	
  2700 ;; *************** function _SSD_Display *****************
  2701 ;; Defined at:
  2702 ;;		line 51 in file "SSD/SSD.c"
  2703 ;; Parameters:    Size  Location     Type
  2704 ;;  Number          1    wreg     unsigned char 
  2705 ;; Auto vars:     Size  Location     Type
  2706 ;;  Number          1    2[BANK1 ] unsigned char 
  2707 ;; Return value:  Size  Location     Type
  2708 ;;                  1    wreg      void 
  2709 ;; Registers used:
  2710 ;;		wreg, fsr0l, fsr0h, status,2, status,0
  2711 ;; Tracked objects:
  2712 ;;		On entry : 0/0
  2713 ;;		On exit  : 0/0
  2714 ;;		Unchanged: 0/0
  2715 ;; Data sizes:     COMMON   BANK0   BANK1   BANK3   BANK2
  2716 ;;      Params:         0       0       0       0       0
  2717 ;;      Locals:         0       0       1       0       0
  2718 ;;      Temps:          0       0       2       0       0
  2719 ;;      Totals:         0       0       3       0       0
  2720 ;;Total ram usage:        3 bytes
  2721 ;; Hardware stack levels used:    1
  2722 ;; Hardware stack levels required when called:    4
  2723 ;; This function calls:
  2724 ;;		Nothing
  2725 ;; This function is called by:
  2726 ;;		_Display_Normal
  2727 ;; This function uses a non-reentrant model
  2728 ;;
  2729                           
  2730                           
  2731                           ;psect for function _SSD_Display
  2732  025B                     _SSD_Display:
  2733                           
  2734                           ;incstack = 0
  2735 ;; hardware stack exceeded
  2736                           ; Regs used in _SSD_Display: [wreg-fsr0h+status,2+status,0]
  2737                           ;SSD_Display@Number stored from wreg
  2738  025B  1683               	bsf	3,5	;RP0=1, select bank1
  2739  025C  1303               	bcf	3,6	;RP1=0, select bank1
  2740  025D  00A2               	movwf	SSD_Display@Number^(0+128)
  2741  025E                     l2105:
  2742                           
  2743                           ;SSD/SSD.c: 51: void SSD_Display(uint8_t Number);SSD/SSD.c: 52: {;SSD/SSD.c: 54:    swit
      +                          ch(Number)
  2744  025E  2A91               	goto	l2129
  2745  025F                     l2107:
  2746                           
  2747                           ;SSD/SSD.c: 57:         PORTD=0b00111111;
  2748  025F  303F               	movlw	63
  2749  0260  1283               	bcf	3,5	;RP0=0, select bank0
  2750  0261  1303               	bcf	3,6	;RP1=0, select bank0
  2751  0262  0088               	movwf	8	;volatile
  2752                           
  2753                           ;SSD/SSD.c: 58:         break;
  2754  0263  2AB9               	goto	l339
  2755  0264                     l2109:
  2756                           
  2757                           ;SSD/SSD.c: 61:         PORTD=0b00000110;
  2758  0264  3006               	movlw	6
  2759  0265  1283               	bcf	3,5	;RP0=0, select bank0
  2760  0266  1303               	bcf	3,6	;RP1=0, select bank0
  2761  0267  0088               	movwf	8	;volatile
  2762                           
  2763                           ;SSD/SSD.c: 62:         break;
  2764  0268  2AB9               	goto	l339
  2765  0269                     l2111:
  2766                           
  2767                           ;SSD/SSD.c: 65:         PORTD=0b01011011;
  2768  0269  305B               	movlw	91
  2769  026A  1283               	bcf	3,5	;RP0=0, select bank0
  2770  026B  1303               	bcf	3,6	;RP1=0, select bank0
  2771  026C  0088               	movwf	8	;volatile
  2772                           
  2773                           ;SSD/SSD.c: 66:         break;
  2774  026D  2AB9               	goto	l339
  2775  026E                     l2113:
  2776                           
  2777                           ;SSD/SSD.c: 69:         PORTD=0b01001111;
  2778  026E  304F               	movlw	79
  2779  026F  1283               	bcf	3,5	;RP0=0, select bank0
  2780  0270  1303               	bcf	3,6	;RP1=0, select bank0
  2781  0271  0088               	movwf	8	;volatile
  2782                           
  2783                           ;SSD/SSD.c: 70:         break;
  2784  0272  2AB9               	goto	l339
  2785  0273                     l2115:
  2786                           
  2787                           ;SSD/SSD.c: 73:         PORTD=0b01100110;
  2788  0273  3066               	movlw	102
  2789  0274  1283               	bcf	3,5	;RP0=0, select bank0
  2790  0275  1303               	bcf	3,6	;RP1=0, select bank0
  2791  0276  0088               	movwf	8	;volatile
  2792                           
  2793                           ;SSD/SSD.c: 74:         break;
  2794  0277  2AB9               	goto	l339
  2795  0278                     l2117:
  2796                           
  2797                           ;SSD/SSD.c: 77:         PORTD=0b01101101;
  2798  0278  306D               	movlw	109
  2799  0279  1283               	bcf	3,5	;RP0=0, select bank0
  2800  027A  1303               	bcf	3,6	;RP1=0, select bank0
  2801  027B  0088               	movwf	8	;volatile
  2802                           
  2803                           ;SSD/SSD.c: 78:         break;
  2804  027C  2AB9               	goto	l339
  2805  027D                     l2119:
  2806                           
  2807                           ;SSD/SSD.c: 81:         PORTD=0b01111101;
  2808  027D  307D               	movlw	125
  2809  027E  1283               	bcf	3,5	;RP0=0, select bank0
  2810  027F  1303               	bcf	3,6	;RP1=0, select bank0
  2811  0280  0088               	movwf	8	;volatile
  2812                           
  2813                           ;SSD/SSD.c: 82:         break;
  2814  0281  2AB9               	goto	l339
  2815  0282                     l2121:
  2816                           
  2817                           ;SSD/SSD.c: 85:         PORTD=0b00000111;
  2818  0282  3007               	movlw	7
  2819  0283  1283               	bcf	3,5	;RP0=0, select bank0
  2820  0284  1303               	bcf	3,6	;RP1=0, select bank0
  2821  0285  0088               	movwf	8	;volatile
  2822                           
  2823                           ;SSD/SSD.c: 86:         break;
  2824  0286  2AB9               	goto	l339
  2825  0287                     l2123:
  2826                           
  2827                           ;SSD/SSD.c: 89:         PORTD=0b01111111;
  2828  0287  307F               	movlw	127
  2829  0288  1283               	bcf	3,5	;RP0=0, select bank0
  2830  0289  1303               	bcf	3,6	;RP1=0, select bank0
  2831  028A  0088               	movwf	8	;volatile
  2832                           
  2833                           ;SSD/SSD.c: 90:         break;
  2834  028B  2AB9               	goto	l339
  2835  028C                     l2125:
  2836                           
  2837                           ;SSD/SSD.c: 93:         PORTD=0b01101111;
  2838  028C  306F               	movlw	111
  2839  028D  1283               	bcf	3,5	;RP0=0, select bank0
  2840  028E  1303               	bcf	3,6	;RP1=0, select bank0
  2841  028F  0088               	movwf	8	;volatile
  2842                           
  2843                           ;SSD/SSD.c: 94:         break;
  2844  0290  2AB9               	goto	l339
  2845  0291                     l2129:
  2846  0291  0822               	movf	SSD_Display@Number^(0+128),w
  2847  0292  00A0               	movwf	??_SSD_Display^(0+128)
  2848  0293  01A1               	clrf	(??_SSD_Display^(0+128)+1)
  2849                           
  2850                           ; Switch on 2 bytes has been partitioned into a top level switch of size 1, and 1 sub-sw
      +                          itches
  2851                           ; Switch size 1, requested type "simple"
  2852                           ; Number of cases is 1, Range of values is 0 to 0
  2853                           ; switch strategies available:
  2854                           ; Name         Instructions Cycles
  2855                           ; simple_byte            4     3 (average)
  2856                           ; direct_byte           11     8 (fixed)
  2857                           ; jumptable            260     6 (fixed)
  2858                           ;	Chosen strategy is simple_byte
  2859  0294  0821               	movf	(??_SSD_Display+1)^(0+128),w
  2860  0295  3A00               	xorlw	0	; case 0
  2861  0296  1903               	skipnz
  2862  0297  2A99               	goto	l2647
  2863  0298  2AB9               	goto	l339
  2864  0299                     l2647:
  2865                           
  2866                           ; Switch size 1, requested type "simple"
  2867                           ; Number of cases is 10, Range of values is 0 to 9
  2868                           ; switch strategies available:
  2869                           ; Name         Instructions Cycles
  2870                           ; simple_byte           31    16 (average)
  2871                           ; direct_byte           38     8 (fixed)
  2872                           ; jumptable            260     6 (fixed)
  2873                           ;	Chosen strategy is simple_byte
  2874  0299  0820               	movf	??_SSD_Display^(0+128),w
  2875  029A  3A00               	xorlw	0	; case 0
  2876  029B  1903               	skipnz
  2877  029C  2A5F               	goto	l2107
  2878  029D  3A01               	xorlw	1	; case 1
  2879  029E  1903               	skipnz
  2880  029F  2A64               	goto	l2109
  2881  02A0  3A03               	xorlw	3	; case 2
  2882  02A1  1903               	skipnz
  2883  02A2  2A69               	goto	l2111
  2884  02A3  3A01               	xorlw	1	; case 3
  2885  02A4  1903               	skipnz
  2886  02A5  2A6E               	goto	l2113
  2887  02A6  3A07               	xorlw	7	; case 4
  2888  02A7  1903               	skipnz
  2889  02A8  2A73               	goto	l2115
  2890  02A9  3A01               	xorlw	1	; case 5
  2891  02AA  1903               	skipnz
  2892  02AB  2A78               	goto	l2117
  2893  02AC  3A03               	xorlw	3	; case 6
  2894  02AD  1903               	skipnz
  2895  02AE  2A7D               	goto	l2119
  2896  02AF  3A01               	xorlw	1	; case 7
  2897  02B0  1903               	skipnz
  2898  02B1  2A82               	goto	l2121
  2899  02B2  3A0F               	xorlw	15	; case 8
  2900  02B3  1903               	skipnz
  2901  02B4  2A87               	goto	l2123
  2902  02B5  3A01               	xorlw	1	; case 9
  2903  02B6  1903               	skipnz
  2904  02B7  2A8C               	goto	l2125
  2905  02B8  2AB9               	goto	l339
  2906  02B9                     l339:
  2907  02B9  0008               	return
  2908  02BA                     __end_of_SSD_Display:
  2909                           
  2910                           	psect	text16
  2911  01F9                     __ptext16:	
  2912 ;; *************** function _SSD_DigitSelector *****************
  2913 ;; Defined at:
  2914 ;;		line 11 in file "SSD/SSD.c"
  2915 ;; Parameters:    Size  Location     Type
  2916 ;;		None
  2917 ;; Auto vars:     Size  Location     Type
  2918 ;;		None
  2919 ;; Return value:  Size  Location     Type
  2920 ;;                  1    wreg      void 
  2921 ;; Registers used:
  2922 ;;		wreg, fsr0l, fsr0h, status,2, status,0, btemp+1
  2923 ;; Tracked objects:
  2924 ;;		On entry : 0/0
  2925 ;;		On exit  : 0/0
  2926 ;;		Unchanged: 0/0
  2927 ;; Data sizes:     COMMON   BANK0   BANK1   BANK3   BANK2
  2928 ;;      Params:         0       0       0       0       0
  2929 ;;      Locals:         0       0       0       0       0
  2930 ;;      Temps:          0       0       2       0       0
  2931 ;;      Totals:         0       0       2       0       0
  2932 ;;Total ram usage:        2 bytes
  2933 ;; Hardware stack levels used:    1
  2934 ;; Hardware stack levels required when called:    4
  2935 ;; This function calls:
  2936 ;;		Nothing
  2937 ;; This function is called by:
  2938 ;;		_Display_Normal
  2939 ;; This function uses a non-reentrant model
  2940 ;;
  2941                           
  2942                           
  2943                           ;psect for function _SSD_DigitSelector
  2944  01F9                     _SSD_DigitSelector:
  2945  01F9                     l2137:	
  2946                           ;incstack = 0
  2947 ;; hardware stack exceeded
  2948                           ; Regs used in _SSD_DigitSelector: [wreg-fsr0h+status,2+status,0+btemp+1]
  2949                           
  2950                           
  2951                           ;SSD/SSD.c: 13:     if(MODE==Normal_Mode)
  2952  01F9  1283               	bcf	3,5	;RP0=0, select bank0
  2953  01FA  1303               	bcf	3,6	;RP1=0, select bank0
  2954  01FB  084A               	movf	_MODE,w
  2955  01FC  1D03               	btfss	3,2
  2956  01FD  29FF               	goto	u1351
  2957  01FE  2A00               	goto	u1350
  2958  01FF                     u1351:
  2959  01FF  2A5A               	goto	l324
  2960  0200                     u1350:
  2961  0200  2A3B               	goto	l2149
  2962  0201                     l319:	
  2963                           ;SSD/SSD.c: 17:       {;SSD/SSD.c: 18:           case Digit_1_:
  2964                           
  2965                           
  2966                           ;SSD/SSD.c: 19:                       (PORTA|=(1<<2));
  2967  0201  1283               	bcf	3,5	;RP0=0, select bank0
  2968  0202  1303               	bcf	3,6	;RP1=0, select bank0
  2969  0203  1505               	bsf	5,2	;volatile
  2970  0204                     l2141:
  2971                           
  2972                           ;SSD/SSD.c: 20:                       (PORTA&=~(1<<3));
  2973  0204  30F7               	movlw	247
  2974  0205  00FF               	movwf	btemp+1
  2975  0206  087F               	movf	btemp+1,w
  2976  0207  0585               	andwf	5,f	;volatile
  2977                           
  2978                           ;SSD/SSD.c: 21:                       (PORTA&=~(1<<4));
  2979  0208  30EF               	movlw	239
  2980  0209  00FF               	movwf	btemp+1
  2981  020A  087F               	movf	btemp+1,w
  2982  020B  0585               	andwf	5,f	;volatile
  2983                           
  2984                           ;SSD/SSD.c: 22:                       (PORTA&=~(1<<5));
  2985  020C  30DF               	movlw	223
  2986  020D  00FF               	movwf	btemp+1
  2987  020E  087F               	movf	btemp+1,w
  2988  020F  0585               	andwf	5,f	;volatile
  2989  0210                     l2143:
  2990                           
  2991                           ;SSD/SSD.c: 25:                       (PORTA|=(1<<3));
  2992  0210  1283               	bcf	3,5	;RP0=0, select bank0
  2993  0211  1585               	bsf	5,3	;volatile
  2994                           
  2995                           ;SSD/SSD.c: 26:                       (PORTA&=~(1<<2));
  2996  0212  30FB               	movlw	251
  2997  0213  00FF               	movwf	btemp+1
  2998  0214  087F               	movf	btemp+1,w
  2999  0215  0585               	andwf	5,f	;volatile
  3000                           
  3001                           ;SSD/SSD.c: 27:                       (PORTA&=~(1<<4));
  3002  0216  30EF               	movlw	239
  3003  0217  00FF               	movwf	btemp+1
  3004  0218  087F               	movf	btemp+1,w
  3005  0219  0585               	andwf	5,f	;volatile
  3006                           
  3007                           ;SSD/SSD.c: 28:                       (PORTA&=~(1<<5));
  3008  021A  30DF               	movlw	223
  3009  021B  00FF               	movwf	btemp+1
  3010  021C  087F               	movf	btemp+1,w
  3011  021D  0585               	andwf	5,f	;volatile
  3012  021E                     l2145:
  3013                           
  3014                           ;SSD/SSD.c: 31:                       (PORTA|=(1<<4));
  3015  021E  1283               	bcf	3,5	;RP0=0, select bank0
  3016  021F  1605               	bsf	5,4	;volatile
  3017                           
  3018                           ;SSD/SSD.c: 32:                       (PORTA&=~(1<<2));
  3019  0220  30FB               	movlw	251
  3020  0221  00FF               	movwf	btemp+1
  3021  0222  087F               	movf	btemp+1,w
  3022  0223  0585               	andwf	5,f	;volatile
  3023                           
  3024                           ;SSD/SSD.c: 33:                       (PORTA&=~(1<<4));
  3025  0224  30EF               	movlw	239
  3026  0225  00FF               	movwf	btemp+1
  3027  0226  087F               	movf	btemp+1,w
  3028  0227  0585               	andwf	5,f	;volatile
  3029                           
  3030                           ;SSD/SSD.c: 34:                       (PORTA&=~(1<<5));
  3031  0228  30DF               	movlw	223
  3032  0229  00FF               	movwf	btemp+1
  3033  022A  087F               	movf	btemp+1,w
  3034  022B  0585               	andwf	5,f	;volatile
  3035  022C                     l2147:
  3036                           
  3037                           ;SSD/SSD.c: 37:                       (PORTA|=(1<<5));
  3038  022C  1283               	bcf	3,5	;RP0=0, select bank0
  3039  022D  1685               	bsf	5,5	;volatile
  3040                           
  3041                           ;SSD/SSD.c: 38:                       (PORTA&=~(1<<2));
  3042  022E  30FB               	movlw	251
  3043  022F  00FF               	movwf	btemp+1
  3044  0230  087F               	movf	btemp+1,w
  3045  0231  0585               	andwf	5,f	;volatile
  3046                           
  3047                           ;SSD/SSD.c: 39:                       (PORTA&=~(1<<3));
  3048  0232  30F7               	movlw	247
  3049  0233  00FF               	movwf	btemp+1
  3050  0234  087F               	movf	btemp+1,w
  3051  0235  0585               	andwf	5,f	;volatile
  3052                           
  3053                           ;SSD/SSD.c: 40:                       (PORTA&=~(1<<4));
  3054  0236  30EF               	movlw	239
  3055  0237  00FF               	movwf	btemp+1
  3056  0238  087F               	movf	btemp+1,w
  3057  0239  0585               	andwf	5,f	;volatile
  3058                           
  3059                           ;SSD/SSD.c: 42:       }
  3060  023A  2A53               	goto	l2151
  3061  023B                     l2149:
  3062  023B  0847               	movf	_DigitSelector,w
  3063  023C  1683               	bsf	3,5	;RP0=1, select bank1
  3064  023D  1303               	bcf	3,6	;RP1=0, select bank1
  3065  023E  00A0               	movwf	??_SSD_DigitSelector^(0+128)
  3066  023F  01A1               	clrf	(??_SSD_DigitSelector^(0+128)+1)
  3067                           
  3068                           ; Switch on 2 bytes has been partitioned into a top level switch of size 1, and 1 sub-sw
      +                          itches
  3069                           ; Switch size 1, requested type "simple"
  3070                           ; Number of cases is 1, Range of values is 0 to 0
  3071                           ; switch strategies available:
  3072                           ; Name         Instructions Cycles
  3073                           ; simple_byte            4     3 (average)
  3074                           ; direct_byte           11     8 (fixed)
  3075                           ; jumptable            260     6 (fixed)
  3076                           ;	Chosen strategy is simple_byte
  3077  0240  0821               	movf	(??_SSD_DigitSelector+1)^(0+128),w
  3078  0241  3A00               	xorlw	0	; case 0
  3079  0242  1903               	skipnz
  3080  0243  2A45               	goto	l2649
  3081  0244  2A53               	goto	l2151
  3082  0245                     l2649:
  3083                           
  3084                           ; Switch size 1, requested type "simple"
  3085                           ; Number of cases is 4, Range of values is 0 to 3
  3086                           ; switch strategies available:
  3087                           ; Name         Instructions Cycles
  3088                           ; simple_byte           13     7 (average)
  3089                           ; direct_byte           20     8 (fixed)
  3090                           ; jumptable            260     6 (fixed)
  3091                           ;	Chosen strategy is simple_byte
  3092  0245  0820               	movf	??_SSD_DigitSelector^(0+128),w
  3093  0246  3A00               	xorlw	0	; case 0
  3094  0247  1903               	skipnz
  3095  0248  2A01               	goto	l319
  3096  0249  3A01               	xorlw	1	; case 1
  3097  024A  1903               	skipnz
  3098  024B  2A10               	goto	l2143
  3099  024C  3A03               	xorlw	3	; case 2
  3100  024D  1903               	skipnz
  3101  024E  2A1E               	goto	l2145
  3102  024F  3A01               	xorlw	1	; case 3
  3103  0250  1903               	skipnz
  3104  0251  2A2C               	goto	l2147
  3105  0252  2A53               	goto	l2151
  3106  0253                     l2151:
  3107                           
  3108                           ;SSD/SSD.c: 43:       DigitSelector=(DigitSelector+1)%4;
  3109  0253  1283               	bcf	3,5	;RP0=0, select bank0
  3110  0254  0847               	movf	_DigitSelector,w
  3111  0255  3E01               	addlw	1
  3112  0256  3903               	andlw	3
  3113  0257  00FF               	movwf	btemp+1
  3114  0258  087F               	movf	btemp+1,w
  3115  0259  00C7               	movwf	_DigitSelector
  3116  025A                     l324:
  3117  025A  0008               	return
  3118  025B                     __end_of_SSD_DigitSelector:
  3119                           
  3120                           	psect	text17
  3121  05F9                     __ptext17:	
  3122 ;; *************** function _Display_Minutes_Setting *****************
  3123 ;; Defined at:
  3124 ;;		line 78 in file "Display/Display.c"
  3125 ;; Parameters:    Size  Location     Type
  3126 ;;		None
  3127 ;; Auto vars:     Size  Location     Type
  3128 ;;		None
  3129 ;; Return value:  Size  Location     Type
  3130 ;;                  1    wreg      void 
  3131 ;; Registers used:
  3132 ;;		None
  3133 ;; Tracked objects:
  3134 ;;		On entry : 0/0
  3135 ;;		On exit  : 0/0
  3136 ;;		Unchanged: 0/0
  3137 ;; Data sizes:     COMMON   BANK0   BANK1   BANK3   BANK2
  3138 ;;      Params:         0       0       0       0       0
  3139 ;;      Locals:         0       0       0       0       0
  3140 ;;      Temps:          0       0       0       0       0
  3141 ;;      Totals:         0       0       0       0       0
  3142 ;;Total ram usage:        0 bytes
  3143 ;; Hardware stack levels used:    1
  3144 ;; Hardware stack levels required when called:    4
  3145 ;; This function calls:
  3146 ;;		Nothing
  3147 ;; This function is called by:
  3148 ;;		_Display_Update
  3149 ;; This function uses a non-reentrant model
  3150 ;;
  3151                           
  3152                           
  3153                           ;psect for function _Display_Minutes_Setting
  3154  05F9                     _Display_Minutes_Setting:
  3155  05F9                     l183:	
  3156                           ;incstack = 0
  3157                           ; Regs used in _Display_Minutes_Setting: []
  3158                           
  3159  05F9  0008               	return
  3160  05FA                     __end_of_Display_Minutes_Setting:
  3161                           
  3162                           	psect	text18
  3163  05FA                     __ptext18:	
  3164 ;; *************** function _Display_Hour_Setting *****************
  3165 ;; Defined at:
  3166 ;;		line 71 in file "Display/Display.c"
  3167 ;; Parameters:    Size  Location     Type
  3168 ;;		None
  3169 ;; Auto vars:     Size  Location     Type
  3170 ;;		None
  3171 ;; Return value:  Size  Location     Type
  3172 ;;                  1    wreg      void 
  3173 ;; Registers used:
  3174 ;;		None
  3175 ;; Tracked objects:
  3176 ;;		On entry : 0/0
  3177 ;;		On exit  : 0/0
  3178 ;;		Unchanged: 0/0
  3179 ;; Data sizes:     COMMON   BANK0   BANK1   BANK3   BANK2
  3180 ;;      Params:         0       0       0       0       0
  3181 ;;      Locals:         0       0       0       0       0
  3182 ;;      Temps:          0       0       0       0       0
  3183 ;;      Totals:         0       0       0       0       0
  3184 ;;Total ram usage:        0 bytes
  3185 ;; Hardware stack levels used:    1
  3186 ;; Hardware stack levels required when called:    4
  3187 ;; This function calls:
  3188 ;;		Nothing
  3189 ;; This function is called by:
  3190 ;;		_Display_Update
  3191 ;; This function uses a non-reentrant model
  3192 ;;
  3193                           
  3194                           
  3195                           ;psect for function _Display_Hour_Setting
  3196  05FA                     _Display_Hour_Setting:
  3197  05FA                     l180:	
  3198                           ;incstack = 0
  3199                           ; Regs used in _Display_Hour_Setting: []
  3200                           
  3201  05FA  0008               	return
  3202  05FB                     __end_of_Display_Hour_Setting:
  3203                           
  3204                           	psect	text19
  3205  05B0                     __ptext19:	
  3206 ;; *************** function _Scheduler_Init *****************
  3207 ;; Defined at:
  3208 ;;		line 10 in file "Scheduler/Scheduler.c"
  3209 ;; Parameters:    Size  Location     Type
  3210 ;;		None
  3211 ;; Auto vars:     Size  Location     Type
  3212 ;;		None
  3213 ;; Return value:  Size  Location     Type
  3214 ;;                  1    wreg      void 
  3215 ;; Registers used:
  3216 ;;		wreg, fsr0l, fsr0h, status,2, status,0, btemp+1, pclath, cstack
  3217 ;; Tracked objects:
  3218 ;;		On entry : 0/0
  3219 ;;		On exit  : 0/0
  3220 ;;		Unchanged: 0/0
  3221 ;; Data sizes:     COMMON   BANK0   BANK1   BANK3   BANK2
  3222 ;;      Params:         0       0       0       0       0
  3223 ;;      Locals:         0       0       0       0       0
  3224 ;;      Temps:          0       0       0       0       0
  3225 ;;      Totals:         0       0       0       0       0
  3226 ;;Total ram usage:        0 bytes
  3227 ;; Hardware stack levels used:    1
  3228 ;; Hardware stack levels required when called:    5
  3229 ;; This function calls:
  3230 ;;		_memset
  3231 ;; This function is called by:
  3232 ;;		_main
  3233 ;; This function uses a non-reentrant model
  3234 ;;
  3235                           
  3236                           
  3237                           ;psect for function _Scheduler_Init
  3238  05B0                     _Scheduler_Init:
  3239  05B0                     l2435:	
  3240                           ;incstack = 0
  3241                           ; Regs used in _Scheduler_Init: [wreg-fsr0h+status,2+status,0+btemp+1+pclath+cstack]
  3242                           
  3243                           
  3244                           ;Scheduler/Scheduler.c: 12:     memset(Task_Flag,0,sizeof(Task_Flag));
  3245  05B0  3000               	movlw	0
  3246  05B1  1683               	bsf	3,5	;RP0=1, select bank1
  3247  05B2  1303               	bcf	3,6	;RP1=0, select bank1
  3248  05B3  00A0               	movwf	memset@c^(0+128)
  3249  05B4  00A1               	movwf	(memset@c+1)^(0+128)
  3250  05B5  3003               	movlw	3
  3251  05B6  00A2               	movwf	memset@n^(0+128)
  3252  05B7  3000               	movlw	0
  3253  05B8  00A3               	movwf	(memset@n^(0+128)+1)
  3254  05B9  3052               	movlw	(low (_Task_Flag| 0))& (0+255)
  3255  05BA  120A  118A  24FF  120A  118A  	fcall	_memset
  3256  05BF                     l36:
  3257  05BF  0008               	return
  3258  05C0                     __end_of_Scheduler_Init:
  3259                           
  3260                           	psect	text20
  3261  04FF                     __ptext20:	
  3262 ;; *************** function _memset *****************
  3263 ;; Defined at:
  3264 ;;		line 8 in file "C:\Program Files (x86)\Microchip\xc8\v2.20\pic\sources\c90\common\memset.c"
  3265 ;; Parameters:    Size  Location     Type
  3266 ;;  p1              1    wreg     PTR void 
  3267 ;;		 -> Debounce_DownButton(3), Debounce_UpButton(3), Task_Flag(3), 
  3268 ;;  c               2    0[BANK1 ] int 
  3269 ;;  n               2    2[BANK1 ] unsigned int 
  3270 ;; Auto vars:     Size  Location     Type
  3271 ;;  p1              1    5[BANK1 ] PTR void 
  3272 ;;		 -> Debounce_DownButton(3), Debounce_UpButton(3), Task_Flag(3), 
  3273 ;;  p               1    4[BANK1 ] PTR unsigned char 
  3274 ;;		 -> Debounce_DownButton(3), Debounce_UpButton(3), Task_Flag(3), 
  3275 ;; Return value:  Size  Location     Type
  3276 ;;                  1    wreg      PTR void 
  3277 ;; Registers used:
  3278 ;;		wreg, fsr0l, fsr0h, status,2, status,0, btemp+1
  3279 ;; Tracked objects:
  3280 ;;		On entry : 0/0
  3281 ;;		On exit  : 0/0
  3282 ;;		Unchanged: 0/0
  3283 ;; Data sizes:     COMMON   BANK0   BANK1   BANK3   BANK2
  3284 ;;      Params:         0       0       4       0       0
  3285 ;;      Locals:         0       0       2       0       0
  3286 ;;      Temps:          0       0       0       0       0
  3287 ;;      Totals:         0       0       6       0       0
  3288 ;;Total ram usage:        6 bytes
  3289 ;; Hardware stack levels used:    1
  3290 ;; Hardware stack levels required when called:    4
  3291 ;; This function calls:
  3292 ;;		Nothing
  3293 ;; This function is called by:
  3294 ;;		_Scheduler_Init
  3295 ;;		_Buttons_Init
  3296 ;; This function uses a non-reentrant model
  3297 ;;
  3298                           
  3299                           
  3300                           ;psect for function _memset
  3301  04FF                     _memset:
  3302                           
  3303                           ;incstack = 0
  3304                           ; Regs used in _memset: [wreg-fsr0h+status,2+status,0+btemp+1]
  3305                           ;memset@p1 stored from wreg
  3306  04FF  1683               	bsf	3,5	;RP0=1, select bank1
  3307  0500  1303               	bcf	3,6	;RP1=0, select bank1
  3308  0501  00A5               	movwf	memset@p1^(0+128)
  3309  0502                     l2277:
  3310  0502  0825               	movf	memset@p1^(0+128),w
  3311  0503  00FF               	movwf	btemp+1
  3312  0504  087F               	movf	btemp+1,w
  3313  0505  00A4               	movwf	memset@p^(0+128)
  3314  0506  2D12               	goto	l2283
  3315  0507                     l2279:
  3316  0507  0820               	movf	memset@c^(0+128),w
  3317  0508  00FF               	movwf	btemp+1
  3318  0509  0824               	movf	memset@p^(0+128),w
  3319  050A  0084               	movwf	4
  3320  050B  087F               	movf	btemp+1,w
  3321  050C  1383               	bcf	3,7	;select IRP bank0
  3322  050D  0080               	movwf	0
  3323  050E                     l2281:
  3324  050E  3001               	movlw	1
  3325  050F  00FF               	movwf	btemp+1
  3326  0510  087F               	movf	btemp+1,w
  3327  0511  07A4               	addwf	memset@p^(0+128),f
  3328  0512                     l2283:
  3329  0512  3001               	movlw	1
  3330  0513  02A2               	subwf	memset@n^(0+128),f
  3331  0514  3000               	movlw	0
  3332  0515  1C03               	skipc
  3333  0516  03A3               	decf	(memset@n+1)^(0+128),f
  3334  0517  02A3               	subwf	(memset@n+1)^(0+128),f
  3335  0518  0A22               	incf	memset@n^(0+128),w
  3336  0519  1D03               	skipz
  3337  051A  2D1F               	goto	u1531
  3338  051B  0A23               	incf	(memset@n+1)^(0+128),w
  3339  051C  1D03               	btfss	3,2
  3340  051D  2D1F               	goto	u1531
  3341  051E  2D20               	goto	u1530
  3342  051F                     u1531:
  3343  051F  2D07               	goto	l2279
  3344  0520                     u1530:
  3345  0520                     l879:
  3346  0520  0008               	return
  3347  0521                     __end_of_memset:
  3348                           
  3349                           	psect	text21
  3350  05EF                     __ptext21:	
  3351 ;; *************** function _ModeManager_Init *****************
  3352 ;; Defined at:
  3353 ;;		line 11 in file "ModeManger/ModeManager.c"
  3354 ;; Parameters:    Size  Location     Type
  3355 ;;		None
  3356 ;; Auto vars:     Size  Location     Type
  3357 ;;		None
  3358 ;; Return value:  Size  Location     Type
  3359 ;;                  1    wreg      void 
  3360 ;; Registers used:
  3361 ;;		status,2
  3362 ;; Tracked objects:
  3363 ;;		On entry : 0/0
  3364 ;;		On exit  : 0/0
  3365 ;;		Unchanged: 0/0
  3366 ;; Data sizes:     COMMON   BANK0   BANK1   BANK3   BANK2
  3367 ;;      Params:         0       0       0       0       0
  3368 ;;      Locals:         0       0       0       0       0
  3369 ;;      Temps:          0       0       0       0       0
  3370 ;;      Totals:         0       0       0       0       0
  3371 ;;Total ram usage:        0 bytes
  3372 ;; Hardware stack levels used:    1
  3373 ;; Hardware stack levels required when called:    4
  3374 ;; This function calls:
  3375 ;;		Nothing
  3376 ;; This function is called by:
  3377 ;;		_main
  3378 ;; This function uses a non-reentrant model
  3379 ;;
  3380                           
  3381                           
  3382                           ;psect for function _ModeManager_Init
  3383  05EF                     _ModeManager_Init:
  3384  05EF                     l2427:	
  3385                           ;incstack = 0
  3386                           ; Regs used in _ModeManager_Init: [status,2]
  3387                           
  3388                           
  3389                           ;ModeManger/ModeManager.c: 13:   MODE=Normal_Mode;
  3390  05EF  1283               	bcf	3,5	;RP0=0, select bank0
  3391  05F0  1303               	bcf	3,6	;RP1=0, select bank0
  3392  05F1  01CA               	clrf	_MODE
  3393  05F2                     l203:
  3394  05F2  0008               	return
  3395  05F3                     __end_of_ModeManager_Init:
  3396                           
  3397                           	psect	text22
  3398  0574                     __ptext22:	
  3399 ;; *************** function _GPIO_Init *****************
  3400 ;; Defined at:
  3401 ;;		line 9 in file "gpio/gpio.c"
  3402 ;; Parameters:    Size  Location     Type
  3403 ;;		None
  3404 ;; Auto vars:     Size  Location     Type
  3405 ;;		None
  3406 ;; Return value:  Size  Location     Type
  3407 ;;                  1    wreg      void 
  3408 ;; Registers used:
  3409 ;;		wreg, status,2, status,0, btemp+1
  3410 ;; Tracked objects:
  3411 ;;		On entry : 0/0
  3412 ;;		On exit  : 0/0
  3413 ;;		Unchanged: 0/0
  3414 ;; Data sizes:     COMMON   BANK0   BANK1   BANK3   BANK2
  3415 ;;      Params:         0       0       0       0       0
  3416 ;;      Locals:         0       0       0       0       0
  3417 ;;      Temps:          0       0       0       0       0
  3418 ;;      Totals:         0       0       0       0       0
  3419 ;;Total ram usage:        0 bytes
  3420 ;; Hardware stack levels used:    1
  3421 ;; Hardware stack levels required when called:    4
  3422 ;; This function calls:
  3423 ;;		Nothing
  3424 ;; This function is called by:
  3425 ;;		_main
  3426 ;; This function uses a non-reentrant model
  3427 ;;
  3428                           
  3429                           
  3430                           ;psect for function _GPIO_Init
  3431  0574                     _GPIO_Init:
  3432  0574                     l2405:	
  3433                           ;incstack = 0
  3434                           ; Regs used in _GPIO_Init: [wreg+status,2+status,0+btemp+1]
  3435                           
  3436  0574                     l108:	
  3437                           ;gpio/gpio.c: 11:     (1==0)? ((TRISB&=~(1<<1))) :((TRISB|=(1<<1)));
  3438                           
  3439  0574  1683               	bsf	3,5	;RP0=1, select bank1
  3440  0575  1303               	bcf	3,6	;RP1=0, select bank1
  3441  0576  1486               	bsf	6,1	;volatile
  3442  0577                     l112:
  3443  0577  1406               	bsf	6,0	;volatile
  3444  0578                     l2411:
  3445  0578  30FB               	movlw	251
  3446  0579  00FF               	movwf	btemp+1
  3447  057A  087F               	movf	btemp+1,w
  3448  057B  0585               	andwf	5,f	;volatile
  3449  057C                     l2413:
  3450  057C  30F7               	movlw	247
  3451  057D  00FF               	movwf	btemp+1
  3452  057E  087F               	movf	btemp+1,w
  3453  057F  0585               	andwf	5,f	;volatile
  3454  0580                     l2415:
  3455  0580  30EF               	movlw	239
  3456  0581  00FF               	movwf	btemp+1
  3457  0582  087F               	movf	btemp+1,w
  3458  0583  0585               	andwf	5,f	;volatile
  3459  0584                     l2417:
  3460  0584  30DF               	movlw	223
  3461  0585  00FF               	movwf	btemp+1
  3462  0586  087F               	movf	btemp+1,w
  3463  0587  0585               	andwf	5,f	;volatile
  3464  0588                     l2419:
  3465  0588  0188               	clrf	8	;volatile
  3466  0589                     l135:
  3467  0589  0008               	return
  3468  058A                     __end_of_GPIO_Init:
  3469                           
  3470                           	psect	text23
  3471  003F                     __ptext23:	
  3472 ;; *************** function _Display_Init *****************
  3473 ;; Defined at:
  3474 ;;		line 23 in file "Display/Display.c"
  3475 ;; Parameters:    Size  Location     Type
  3476 ;;		None
  3477 ;; Auto vars:     Size  Location     Type
  3478 ;;		None
  3479 ;; Return value:  Size  Location     Type
  3480 ;;                  1    wreg      void 
  3481 ;; Registers used:
  3482 ;;		wreg, status,2, status,0, btemp+1, pclath, cstack
  3483 ;; Tracked objects:
  3484 ;;		On entry : 0/0
  3485 ;;		On exit  : 0/0
  3486 ;;		Unchanged: 0/0
  3487 ;; Data sizes:     COMMON   BANK0   BANK1   BANK3   BANK2
  3488 ;;      Params:         0       0       0       0       0
  3489 ;;      Locals:         0       0       0       0       0
  3490 ;;      Temps:          0       0       2       0       0
  3491 ;;      Totals:         0       0       2       0       0
  3492 ;;Total ram usage:        2 bytes
  3493 ;; Hardware stack levels used:    1
  3494 ;; Hardware stack levels required when called:    5
  3495 ;; This function calls:
  3496 ;;		___awdiv
  3497 ;;		___awmod
  3498 ;; This function is called by:
  3499 ;;		_main
  3500 ;; This function uses a non-reentrant model
  3501 ;;
  3502                           
  3503                           
  3504                           ;psect for function _Display_Init
  3505  003F                     _Display_Init:
  3506  003F                     l2423:	
  3507                           ;incstack = 0
  3508                           ; Regs used in _Display_Init: [wreg+status,2+status,0+btemp+1+pclath+cstack]
  3509                           
  3510                           
  3511                           ;Display/Display.c: 25: Digit1=Clock.Hours/10;
  3512  003F  300A               	movlw	10
  3513  0040  1683               	bsf	3,5	;RP0=1, select bank1
  3514  0041  1303               	bcf	3,6	;RP1=0, select bank1
  3515  0042  00A0               	movwf	___awdiv@divisor^(0+128)
  3516  0043  3000               	movlw	0
  3517  0044  00A1               	movwf	(___awdiv@divisor^(0+128)+1)
  3518  0045  1283               	bcf	3,5	;RP0=0, select bank0
  3519  0046  1303               	bcf	3,6	;RP1=0, select bank0
  3520  0047  0842               	movf	_Clock+2,w
  3521  0048  1683               	bsf	3,5	;RP0=1, select bank1
  3522  0049  1303               	bcf	3,6	;RP1=0, select bank1
  3523  004A  00A8               	movwf	??_Display_Init^(0+128)
  3524  004B  01A9               	clrf	(??_Display_Init^(0+128)+1)
  3525  004C  0828               	movf	??_Display_Init^(0+128),w
  3526  004D  00A2               	movwf	___awdiv@dividend^(0+128)
  3527  004E  0829               	movf	(??_Display_Init+1)^(0+128),w
  3528  004F  00A3               	movwf	(___awdiv@dividend+1)^(0+128)
  3529  0050  120A  118A  2128  120A  118A  	fcall	___awdiv
  3530  0055  1683               	bsf	3,5	;RP0=1, select bank1
  3531  0056  1303               	bcf	3,6	;RP1=0, select bank1
  3532  0057  0820               	movf	?___awdiv^(0+128),w
  3533  0058  00FF               	movwf	btemp+1
  3534  0059  087F               	movf	btemp+1,w
  3535  005A  1283               	bcf	3,5	;RP0=0, select bank0
  3536  005B  1303               	bcf	3,6	;RP1=0, select bank0
  3537  005C  00C6               	movwf	_Digit1
  3538                           
  3539                           ;Display/Display.c: 26: Digit2=Clock.Hours%10;
  3540  005D  300A               	movlw	10
  3541  005E  1683               	bsf	3,5	;RP0=1, select bank1
  3542  005F  1303               	bcf	3,6	;RP1=0, select bank1
  3543  0060  00A0               	movwf	___awmod@divisor^(0+128)
  3544  0061  3000               	movlw	0
  3545  0062  00A1               	movwf	(___awmod@divisor^(0+128)+1)
  3546  0063  1283               	bcf	3,5	;RP0=0, select bank0
  3547  0064  1303               	bcf	3,6	;RP1=0, select bank0
  3548  0065  0842               	movf	_Clock+2,w
  3549  0066  1683               	bsf	3,5	;RP0=1, select bank1
  3550  0067  1303               	bcf	3,6	;RP1=0, select bank1
  3551  0068  00A8               	movwf	??_Display_Init^(0+128)
  3552  0069  01A9               	clrf	(??_Display_Init^(0+128)+1)
  3553  006A  0828               	movf	??_Display_Init^(0+128),w
  3554  006B  00A2               	movwf	___awmod@dividend^(0+128)
  3555  006C  0829               	movf	(??_Display_Init+1)^(0+128),w
  3556  006D  00A3               	movwf	(___awmod@dividend+1)^(0+128)
  3557  006E  120A  118A  22BA  120A  118A  	fcall	___awmod
  3558  0073  1683               	bsf	3,5	;RP0=1, select bank1
  3559  0074  1303               	bcf	3,6	;RP1=0, select bank1
  3560  0075  0820               	movf	?___awmod^(0+128),w
  3561  0076  00FF               	movwf	btemp+1
  3562  0077  087F               	movf	btemp+1,w
  3563  0078  1283               	bcf	3,5	;RP0=0, select bank0
  3564  0079  1303               	bcf	3,6	;RP1=0, select bank0
  3565  007A  00C5               	movwf	_Digit2
  3566                           
  3567                           ;Display/Display.c: 27: Digit3=Clock.Minutes/10;
  3568  007B  300A               	movlw	10
  3569  007C  1683               	bsf	3,5	;RP0=1, select bank1
  3570  007D  1303               	bcf	3,6	;RP1=0, select bank1
  3571  007E  00A0               	movwf	___awdiv@divisor^(0+128)
  3572  007F  3000               	movlw	0
  3573  0080  00A1               	movwf	(___awdiv@divisor^(0+128)+1)
  3574  0081  1283               	bcf	3,5	;RP0=0, select bank0
  3575  0082  1303               	bcf	3,6	;RP1=0, select bank0
  3576  0083  0841               	movf	_Clock+1,w
  3577  0084  1683               	bsf	3,5	;RP0=1, select bank1
  3578  0085  1303               	bcf	3,6	;RP1=0, select bank1
  3579  0086  00A8               	movwf	??_Display_Init^(0+128)
  3580  0087  01A9               	clrf	(??_Display_Init^(0+128)+1)
  3581  0088  0828               	movf	??_Display_Init^(0+128),w
  3582  0089  00A2               	movwf	___awdiv@dividend^(0+128)
  3583  008A  0829               	movf	(??_Display_Init+1)^(0+128),w
  3584  008B  00A3               	movwf	(___awdiv@dividend+1)^(0+128)
  3585  008C  120A  118A  2128  120A  118A  	fcall	___awdiv
  3586  0091  1683               	bsf	3,5	;RP0=1, select bank1
  3587  0092  1303               	bcf	3,6	;RP1=0, select bank1
  3588  0093  0820               	movf	?___awdiv^(0+128),w
  3589  0094  00FF               	movwf	btemp+1
  3590  0095  087F               	movf	btemp+1,w
  3591  0096  1283               	bcf	3,5	;RP0=0, select bank0
  3592  0097  1303               	bcf	3,6	;RP1=0, select bank0
  3593  0098  00C4               	movwf	_Digit3
  3594                           
  3595                           ;Display/Display.c: 28: Digit4=Clock.Minutes%10;
  3596  0099  300A               	movlw	10
  3597  009A  1683               	bsf	3,5	;RP0=1, select bank1
  3598  009B  1303               	bcf	3,6	;RP1=0, select bank1
  3599  009C  00A0               	movwf	___awmod@divisor^(0+128)
  3600  009D  3000               	movlw	0
  3601  009E  00A1               	movwf	(___awmod@divisor^(0+128)+1)
  3602  009F  1283               	bcf	3,5	;RP0=0, select bank0
  3603  00A0  1303               	bcf	3,6	;RP1=0, select bank0
  3604  00A1  0841               	movf	_Clock+1,w
  3605  00A2  1683               	bsf	3,5	;RP0=1, select bank1
  3606  00A3  1303               	bcf	3,6	;RP1=0, select bank1
  3607  00A4  00A8               	movwf	??_Display_Init^(0+128)
  3608  00A5  01A9               	clrf	(??_Display_Init^(0+128)+1)
  3609  00A6  0828               	movf	??_Display_Init^(0+128),w
  3610  00A7  00A2               	movwf	___awmod@dividend^(0+128)
  3611  00A8  0829               	movf	(??_Display_Init+1)^(0+128),w
  3612  00A9  00A3               	movwf	(___awmod@dividend+1)^(0+128)
  3613  00AA  120A  118A  22BA  120A  118A  	fcall	___awmod
  3614  00AF  1683               	bsf	3,5	;RP0=1, select bank1
  3615  00B0  1303               	bcf	3,6	;RP1=0, select bank1
  3616  00B1  0820               	movf	?___awmod^(0+128),w
  3617  00B2  00FF               	movwf	btemp+1
  3618  00B3  087F               	movf	btemp+1,w
  3619  00B4  1283               	bcf	3,5	;RP0=0, select bank0
  3620  00B5  1303               	bcf	3,6	;RP1=0, select bank0
  3621  00B6  00C3               	movwf	_Digit4
  3622  00B7                     l164:
  3623  00B7  0008               	return
  3624  00B8                     __end_of_Display_Init:
  3625                           
  3626                           	psect	text24
  3627  02BA                     __ptext24:	
  3628 ;; *************** function ___awmod *****************
  3629 ;; Defined at:
  3630 ;;		line 5 in file "C:\Program Files (x86)\Microchip\xc8\v2.20\pic\sources\c90\common\awmod.c"
  3631 ;; Parameters:    Size  Location     Type
  3632 ;;  divisor         2    0[BANK1 ] int 
  3633 ;;  dividend        2    2[BANK1 ] int 
  3634 ;; Auto vars:     Size  Location     Type
  3635 ;;  sign            1    5[BANK1 ] unsigned char 
  3636 ;;  counter         1    4[BANK1 ] unsigned char 
  3637 ;; Return value:  Size  Location     Type
  3638 ;;                  2    0[BANK1 ] int 
  3639 ;; Registers used:
  3640 ;;		wreg, status,2, status,0, btemp+1
  3641 ;; Tracked objects:
  3642 ;;		On entry : 0/0
  3643 ;;		On exit  : 0/0
  3644 ;;		Unchanged: 0/0
  3645 ;; Data sizes:     COMMON   BANK0   BANK1   BANK3   BANK2
  3646 ;;      Params:         0       0       4       0       0
  3647 ;;      Locals:         0       0       2       0       0
  3648 ;;      Temps:          0       0       0       0       0
  3649 ;;      Totals:         0       0       6       0       0
  3650 ;;Total ram usage:        6 bytes
  3651 ;; Hardware stack levels used:    1
  3652 ;; Hardware stack levels required when called:    4
  3653 ;; This function calls:
  3654 ;;		Nothing
  3655 ;; This function is called by:
  3656 ;;		_Display_Init
  3657 ;;		_Buttons_Update
  3658 ;; This function uses a non-reentrant model
  3659 ;;
  3660                           
  3661                           
  3662                           ;psect for function ___awmod
  3663  02BA                     ___awmod:
  3664  02BA                     l2367:	
  3665                           ;incstack = 0
  3666                           ; Regs used in ___awmod: [wreg+status,2+status,0+btemp+1]
  3667                           
  3668  02BA  1683               	bsf	3,5	;RP0=1, select bank1
  3669  02BB  1303               	bcf	3,6	;RP1=0, select bank1
  3670  02BC  01A5               	clrf	___awmod@sign^(0+128)
  3671  02BD                     l2369:
  3672  02BD  1FA3               	btfss	(___awmod@dividend+1)^(0+128),7
  3673  02BE  2AC0               	goto	u1681
  3674  02BF  2AC1               	goto	u1680
  3675  02C0                     u1681:
  3676  02C0  2AC8               	goto	l2375
  3677  02C1                     u1680:
  3678  02C1                     l2371:
  3679  02C1  09A2               	comf	___awmod@dividend^(0+128),f
  3680  02C2  09A3               	comf	(___awmod@dividend+1)^(0+128),f
  3681  02C3  0AA2               	incf	___awmod@dividend^(0+128),f
  3682  02C4  1903               	skipnz
  3683  02C5  0AA3               	incf	(___awmod@dividend+1)^(0+128),f
  3684  02C6                     l2373:
  3685  02C6  01A5               	clrf	___awmod@sign^(0+128)
  3686  02C7  0AA5               	incf	___awmod@sign^(0+128),f
  3687  02C8                     l2375:
  3688  02C8  1FA1               	btfss	(___awmod@divisor+1)^(0+128),7
  3689  02C9  2ACB               	goto	u1691
  3690  02CA  2ACC               	goto	u1690
  3691  02CB                     u1691:
  3692  02CB  2AD1               	goto	l2379
  3693  02CC                     u1690:
  3694  02CC                     l2377:
  3695  02CC  09A0               	comf	___awmod@divisor^(0+128),f
  3696  02CD  09A1               	comf	(___awmod@divisor+1)^(0+128),f
  3697  02CE  0AA0               	incf	___awmod@divisor^(0+128),f
  3698  02CF  1903               	skipnz
  3699  02D0  0AA1               	incf	(___awmod@divisor+1)^(0+128),f
  3700  02D1                     l2379:
  3701  02D1  0820               	movf	___awmod@divisor^(0+128),w
  3702  02D2  0421               	iorwf	(___awmod@divisor+1)^(0+128),w
  3703  02D3  1903               	btfsc	3,2
  3704  02D4  2AD6               	goto	u1701
  3705  02D5  2AD7               	goto	u1700
  3706  02D6                     u1701:
  3707  02D6  2B06               	goto	l2397
  3708  02D7                     u1700:
  3709  02D7                     l2381:
  3710  02D7  01A4               	clrf	___awmod@counter^(0+128)
  3711  02D8  0AA4               	incf	___awmod@counter^(0+128),f
  3712  02D9  2AE5               	goto	l2387
  3713  02DA                     l2383:
  3714  02DA  3001               	movlw	1
  3715  02DB                     u1715:
  3716  02DB  1003               	clrc
  3717  02DC  0DA0               	rlf	___awmod@divisor^(0+128),f
  3718  02DD  0DA1               	rlf	(___awmod@divisor+1)^(0+128),f
  3719  02DE  3EFF               	addlw	-1
  3720  02DF  1D03               	skipz
  3721  02E0  2ADB               	goto	u1715
  3722  02E1                     l2385:
  3723  02E1  3001               	movlw	1
  3724  02E2  00FF               	movwf	btemp+1
  3725  02E3  087F               	movf	btemp+1,w
  3726  02E4  07A4               	addwf	___awmod@counter^(0+128),f
  3727  02E5                     l2387:
  3728  02E5  1FA1               	btfss	(___awmod@divisor+1)^(0+128),7
  3729  02E6  2AE8               	goto	u1721
  3730  02E7  2AE9               	goto	u1720
  3731  02E8                     u1721:
  3732  02E8  2ADA               	goto	l2383
  3733  02E9                     u1720:
  3734  02E9                     l2389:
  3735  02E9  0821               	movf	(___awmod@divisor+1)^(0+128),w
  3736  02EA  0223               	subwf	(___awmod@dividend+1)^(0+128),w
  3737  02EB  1D03               	skipz
  3738  02EC  2AEF               	goto	u1735
  3739  02ED  0820               	movf	___awmod@divisor^(0+128),w
  3740  02EE  0222               	subwf	___awmod@dividend^(0+128),w
  3741  02EF                     u1735:
  3742  02EF  1C03               	skipc
  3743  02F0  2AF2               	goto	u1731
  3744  02F1  2AF3               	goto	u1730
  3745  02F2                     u1731:
  3746  02F2  2AF9               	goto	l2393
  3747  02F3                     u1730:
  3748  02F3                     l2391:
  3749  02F3  0820               	movf	___awmod@divisor^(0+128),w
  3750  02F4  02A2               	subwf	___awmod@dividend^(0+128),f
  3751  02F5  0821               	movf	(___awmod@divisor+1)^(0+128),w
  3752  02F6  1C03               	skipc
  3753  02F7  03A3               	decf	(___awmod@dividend+1)^(0+128),f
  3754  02F8  02A3               	subwf	(___awmod@dividend+1)^(0+128),f
  3755  02F9                     l2393:
  3756  02F9  3001               	movlw	1
  3757  02FA                     u1745:
  3758  02FA  1003               	clrc
  3759  02FB  0CA1               	rrf	(___awmod@divisor+1)^(0+128),f
  3760  02FC  0CA0               	rrf	___awmod@divisor^(0+128),f
  3761  02FD  3EFF               	addlw	-1
  3762  02FE  1D03               	skipz
  3763  02FF  2AFA               	goto	u1745
  3764  0300                     l2395:
  3765  0300  3001               	movlw	1
  3766  0301  02A4               	subwf	___awmod@counter^(0+128),f
  3767  0302  1D03               	btfss	3,2
  3768  0303  2B05               	goto	u1751
  3769  0304  2B06               	goto	u1750
  3770  0305                     u1751:
  3771  0305  2AE9               	goto	l2389
  3772  0306                     u1750:
  3773  0306                     l2397:
  3774  0306  0825               	movf	___awmod@sign^(0+128),w
  3775  0307  1903               	btfsc	3,2
  3776  0308  2B0A               	goto	u1761
  3777  0309  2B0B               	goto	u1760
  3778  030A                     u1761:
  3779  030A  2B10               	goto	l2401
  3780  030B                     u1760:
  3781  030B                     l2399:
  3782  030B  09A2               	comf	___awmod@dividend^(0+128),f
  3783  030C  09A3               	comf	(___awmod@dividend+1)^(0+128),f
  3784  030D  0AA2               	incf	___awmod@dividend^(0+128),f
  3785  030E  1903               	skipnz
  3786  030F  0AA3               	incf	(___awmod@dividend+1)^(0+128),f
  3787  0310                     l2401:
  3788  0310  0823               	movf	(___awmod@dividend+1)^(0+128),w
  3789  0311  00A1               	movwf	(?___awmod+1)^(0+128)
  3790  0312  0822               	movf	___awmod@dividend^(0+128),w
  3791  0313  00A0               	movwf	?___awmod^(0+128)
  3792  0314                     l591:
  3793  0314  0008               	return
  3794  0315                     __end_of___awmod:
  3795                           
  3796                           	psect	text25
  3797  0128                     __ptext25:	
  3798 ;; *************** function ___awdiv *****************
  3799 ;; Defined at:
  3800 ;;		line 5 in file "C:\Program Files (x86)\Microchip\xc8\v2.20\pic\sources\c90\common\awdiv.c"
  3801 ;; Parameters:    Size  Location     Type
  3802 ;;  divisor         2    0[BANK1 ] int 
  3803 ;;  dividend        2    2[BANK1 ] int 
  3804 ;; Auto vars:     Size  Location     Type
  3805 ;;  quotient        2    6[BANK1 ] int 
  3806 ;;  sign            1    5[BANK1 ] unsigned char 
  3807 ;;  counter         1    4[BANK1 ] unsigned char 
  3808 ;; Return value:  Size  Location     Type
  3809 ;;                  2    0[BANK1 ] int 
  3810 ;; Registers used:
  3811 ;;		wreg, status,2, status,0, btemp+1
  3812 ;; Tracked objects:
  3813 ;;		On entry : 0/0
  3814 ;;		On exit  : 0/0
  3815 ;;		Unchanged: 0/0
  3816 ;; Data sizes:     COMMON   BANK0   BANK1   BANK3   BANK2
  3817 ;;      Params:         0       0       4       0       0
  3818 ;;      Locals:         0       0       4       0       0
  3819 ;;      Temps:          0       0       0       0       0
  3820 ;;      Totals:         0       0       8       0       0
  3821 ;;Total ram usage:        8 bytes
  3822 ;; Hardware stack levels used:    1
  3823 ;; Hardware stack levels required when called:    4
  3824 ;; This function calls:
  3825 ;;		Nothing
  3826 ;; This function is called by:
  3827 ;;		_Display_Init
  3828 ;; This function uses a non-reentrant model
  3829 ;;
  3830                           
  3831                           
  3832                           ;psect for function ___awdiv
  3833  0128                     ___awdiv:
  3834  0128                     l2323:	
  3835                           ;incstack = 0
  3836                           ; Regs used in ___awdiv: [wreg+status,2+status,0+btemp+1]
  3837                           
  3838  0128  1683               	bsf	3,5	;RP0=1, select bank1
  3839  0129  1303               	bcf	3,6	;RP1=0, select bank1
  3840  012A  01A5               	clrf	___awdiv@sign^(0+128)
  3841  012B                     l2325:
  3842  012B  1FA1               	btfss	(___awdiv@divisor+1)^(0+128),7
  3843  012C  292E               	goto	u1581
  3844  012D  292F               	goto	u1580
  3845  012E                     u1581:
  3846  012E  2936               	goto	l2331
  3847  012F                     u1580:
  3848  012F                     l2327:
  3849  012F  09A0               	comf	___awdiv@divisor^(0+128),f
  3850  0130  09A1               	comf	(___awdiv@divisor+1)^(0+128),f
  3851  0131  0AA0               	incf	___awdiv@divisor^(0+128),f
  3852  0132  1903               	skipnz
  3853  0133  0AA1               	incf	(___awdiv@divisor+1)^(0+128),f
  3854  0134                     l2329:
  3855  0134  01A5               	clrf	___awdiv@sign^(0+128)
  3856  0135  0AA5               	incf	___awdiv@sign^(0+128),f
  3857  0136                     l2331:
  3858  0136  1FA3               	btfss	(___awdiv@dividend+1)^(0+128),7
  3859  0137  2939               	goto	u1591
  3860  0138  293A               	goto	u1590
  3861  0139                     u1591:
  3862  0139  2943               	goto	l2337
  3863  013A                     u1590:
  3864  013A                     l2333:
  3865  013A  09A2               	comf	___awdiv@dividend^(0+128),f
  3866  013B  09A3               	comf	(___awdiv@dividend+1)^(0+128),f
  3867  013C  0AA2               	incf	___awdiv@dividend^(0+128),f
  3868  013D  1903               	skipnz
  3869  013E  0AA3               	incf	(___awdiv@dividend+1)^(0+128),f
  3870  013F                     l2335:
  3871  013F  3001               	movlw	1
  3872  0140  00FF               	movwf	btemp+1
  3873  0141  087F               	movf	btemp+1,w
  3874  0142  06A5               	xorwf	___awdiv@sign^(0+128),f
  3875  0143                     l2337:
  3876  0143  01A6               	clrf	___awdiv@quotient^(0+128)
  3877  0144  01A7               	clrf	(___awdiv@quotient+1)^(0+128)
  3878  0145                     l2339:
  3879  0145  0820               	movf	___awdiv@divisor^(0+128),w
  3880  0146  0421               	iorwf	(___awdiv@divisor+1)^(0+128),w
  3881  0147  1903               	btfsc	3,2
  3882  0148  294A               	goto	u1601
  3883  0149  294B               	goto	u1600
  3884  014A                     u1601:
  3885  014A  2982               	goto	l2359
  3886  014B                     u1600:
  3887  014B                     l2341:
  3888  014B  01A4               	clrf	___awdiv@counter^(0+128)
  3889  014C  0AA4               	incf	___awdiv@counter^(0+128),f
  3890  014D  2959               	goto	l2347
  3891  014E                     l2343:
  3892  014E  3001               	movlw	1
  3893  014F                     u1615:
  3894  014F  1003               	clrc
  3895  0150  0DA0               	rlf	___awdiv@divisor^(0+128),f
  3896  0151  0DA1               	rlf	(___awdiv@divisor+1)^(0+128),f
  3897  0152  3EFF               	addlw	-1
  3898  0153  1D03               	skipz
  3899  0154  294F               	goto	u1615
  3900  0155                     l2345:
  3901  0155  3001               	movlw	1
  3902  0156  00FF               	movwf	btemp+1
  3903  0157  087F               	movf	btemp+1,w
  3904  0158  07A4               	addwf	___awdiv@counter^(0+128),f
  3905  0159                     l2347:
  3906  0159  1FA1               	btfss	(___awdiv@divisor+1)^(0+128),7
  3907  015A  295C               	goto	u1621
  3908  015B  295D               	goto	u1620
  3909  015C                     u1621:
  3910  015C  294E               	goto	l2343
  3911  015D                     u1620:
  3912  015D                     l2349:
  3913  015D  3001               	movlw	1
  3914  015E                     u1635:
  3915  015E  1003               	clrc
  3916  015F  0DA6               	rlf	___awdiv@quotient^(0+128),f
  3917  0160  0DA7               	rlf	(___awdiv@quotient+1)^(0+128),f
  3918  0161  3EFF               	addlw	-1
  3919  0162  1D03               	skipz
  3920  0163  295E               	goto	u1635
  3921  0164  0821               	movf	(___awdiv@divisor+1)^(0+128),w
  3922  0165  0223               	subwf	(___awdiv@dividend+1)^(0+128),w
  3923  0166  1D03               	skipz
  3924  0167  296A               	goto	u1645
  3925  0168  0820               	movf	___awdiv@divisor^(0+128),w
  3926  0169  0222               	subwf	___awdiv@dividend^(0+128),w
  3927  016A                     u1645:
  3928  016A  1C03               	skipc
  3929  016B  296D               	goto	u1641
  3930  016C  296E               	goto	u1640
  3931  016D                     u1641:
  3932  016D  2975               	goto	l2355
  3933  016E                     u1640:
  3934  016E                     l2351:
  3935  016E  0820               	movf	___awdiv@divisor^(0+128),w
  3936  016F  02A2               	subwf	___awdiv@dividend^(0+128),f
  3937  0170  0821               	movf	(___awdiv@divisor+1)^(0+128),w
  3938  0171  1C03               	skipc
  3939  0172  03A3               	decf	(___awdiv@dividend+1)^(0+128),f
  3940  0173  02A3               	subwf	(___awdiv@dividend+1)^(0+128),f
  3941  0174                     l2353:
  3942  0174  1426               	bsf	___awdiv@quotient^(0+128),0
  3943  0175                     l2355:
  3944  0175  3001               	movlw	1
  3945  0176                     u1655:
  3946  0176  1003               	clrc
  3947  0177  0CA1               	rrf	(___awdiv@divisor+1)^(0+128),f
  3948  0178  0CA0               	rrf	___awdiv@divisor^(0+128),f
  3949  0179  3EFF               	addlw	-1
  3950  017A  1D03               	skipz
  3951  017B  2976               	goto	u1655
  3952  017C                     l2357:
  3953  017C  3001               	movlw	1
  3954  017D  02A4               	subwf	___awdiv@counter^(0+128),f
  3955  017E  1D03               	btfss	3,2
  3956  017F  2981               	goto	u1661
  3957  0180  2982               	goto	u1660
  3958  0181                     u1661:
  3959  0181  295D               	goto	l2349
  3960  0182                     u1660:
  3961  0182                     l2359:
  3962  0182  0825               	movf	___awdiv@sign^(0+128),w
  3963  0183  1903               	btfsc	3,2
  3964  0184  2986               	goto	u1671
  3965  0185  2987               	goto	u1670
  3966  0186                     u1671:
  3967  0186  298C               	goto	l2363
  3968  0187                     u1670:
  3969  0187                     l2361:
  3970  0187  09A6               	comf	___awdiv@quotient^(0+128),f
  3971  0188  09A7               	comf	(___awdiv@quotient+1)^(0+128),f
  3972  0189  0AA6               	incf	___awdiv@quotient^(0+128),f
  3973  018A  1903               	skipnz
  3974  018B  0AA7               	incf	(___awdiv@quotient+1)^(0+128),f
  3975  018C                     l2363:
  3976  018C  0827               	movf	(___awdiv@quotient+1)^(0+128),w
  3977  018D  00A1               	movwf	(?___awdiv+1)^(0+128)
  3978  018E  0826               	movf	___awdiv@quotient^(0+128),w
  3979  018F  00A0               	movwf	?___awdiv^(0+128)
  3980  0190                     l578:
  3981  0190  0008               	return
  3982  0191                     __end_of___awdiv:
  3983                           
  3984                           	psect	text26
  3985  05E9                     __ptext26:	
  3986 ;; *************** function _Clock_Init *****************
  3987 ;; Defined at:
  3988 ;;		line 13 in file "Clock/Clock.c"
  3989 ;; Parameters:    Size  Location     Type
  3990 ;;		None
  3991 ;; Auto vars:     Size  Location     Type
  3992 ;;		None
  3993 ;; Return value:  Size  Location     Type
  3994 ;;                  1    wreg      void 
  3995 ;; Registers used:
  3996 ;;		status,2
  3997 ;; Tracked objects:
  3998 ;;		On entry : 0/0
  3999 ;;		On exit  : 0/0
  4000 ;;		Unchanged: 0/0
  4001 ;; Data sizes:     COMMON   BANK0   BANK1   BANK3   BANK2
  4002 ;;      Params:         0       0       0       0       0
  4003 ;;      Locals:         0       0       0       0       0
  4004 ;;      Temps:          0       0       0       0       0
  4005 ;;      Totals:         0       0       0       0       0
  4006 ;;Total ram usage:        0 bytes
  4007 ;; Hardware stack levels used:    1
  4008 ;; Hardware stack levels required when called:    4
  4009 ;; This function calls:
  4010 ;;		Nothing
  4011 ;; This function is called by:
  4012 ;;		_main
  4013 ;; This function uses a non-reentrant model
  4014 ;;
  4015                           
  4016                           
  4017                           ;psect for function _Clock_Init
  4018  05E9                     _Clock_Init:
  4019  05E9                     l2425:	
  4020                           ;incstack = 0
  4021                           ; Regs used in _Clock_Init: [status,2]
  4022                           
  4023                           
  4024                           ;Clock/Clock.c: 15:     Clock.Second=0;
  4025  05E9  1283               	bcf	3,5	;RP0=0, select bank0
  4026  05EA  1303               	bcf	3,6	;RP1=0, select bank0
  4027  05EB  01C0               	clrf	_Clock
  4028                           
  4029                           ;Clock/Clock.c: 16:     Clock.Minutes=0;
  4030  05EC  01C1               	clrf	_Clock+1
  4031                           
  4032                           ;Clock/Clock.c: 17:     Clock.Hours=0;
  4033  05ED  01C2               	clrf	_Clock+2
  4034  05EE                     l272:
  4035  05EE  0008               	return
  4036  05EF                     __end_of_Clock_Init:
  4037                           
  4038                           	psect	text27
  4039  039D                     __ptext27:	
  4040 ;; *************** function _ISR *****************
  4041 ;; Defined at:
  4042 ;;		line 10 in file "Interrupt/Interrupt.c"
  4043 ;; Parameters:    Size  Location     Type
  4044 ;;		None
  4045 ;; Auto vars:     Size  Location     Type
  4046 ;;		None
  4047 ;; Return value:  Size  Location     Type
  4048 ;;                  1    wreg      void 
  4049 ;; Registers used:
  4050 ;;		wreg, fsr0l, fsr0h, status,2, status,0, btemp+1, pclath, cstack
  4051 ;; Tracked objects:
  4052 ;;		On entry : 0/0
  4053 ;;		On exit  : 0/0
  4054 ;;		Unchanged: 0/0
  4055 ;; Data sizes:     COMMON   BANK0   BANK1   BANK3   BANK2
  4056 ;;      Params:         0       0       0       0       0
  4057 ;;      Locals:         0       0       0       0       0
  4058 ;;      Temps:          0       4       0       0       0
  4059 ;;      Totals:         0       4       0       0       0
  4060 ;;Total ram usage:        4 bytes
  4061 ;; Hardware stack levels used:    1
  4062 ;; Hardware stack levels required when called:    3
  4063 ;; This function calls:
  4064 ;;		_EXTI_SettingButton_CB
  4065 ;;		_Timer0_CB
  4066 ;; This function is called by:
  4067 ;;		Interrupt level 1
  4068 ;; This function uses a non-reentrant model
  4069 ;;
  4070                           
  4071                           
  4072                           ;psect for function _ISR
  4073  039D                     _ISR:
  4074  039D                     i1l2499:
  4075                           
  4076                           ;Interrupt/Interrupt.c: 12:     if(INTCONbits.T0IF==1)
  4077  039D  1D0B               	btfss	11,2	;volatile
  4078  039E  2BA0               	goto	u185_21
  4079  039F  2BA1               	goto	u185_20
  4080  03A0                     u185_21:
  4081  03A0  2BB1               	goto	i1l225
  4082  03A1                     u185_20:
  4083  03A1                     i1l2501:
  4084                           
  4085                           ;Interrupt/Interrupt.c: 13:     {;Interrupt/Interrupt.c: 14:       TMR0=100;
  4086  03A1  3064               	movlw	100
  4087  03A2  0081               	movwf	1	;volatile
  4088  03A3                     i1l2503:
  4089                           
  4090                           ;Interrupt/Interrupt.c: 15:       INTCONbits.T0IF=0;
  4091  03A3  110B               	bcf	11,2	;volatile
  4092  03A4                     i1l2505:
  4093                           
  4094                           ;Interrupt/Interrupt.c: 17:       Interrupt_CbStruct.Timer_CB();
  4095  03A4  300A               	movlw	low (_Interrupt_CbStruct-__stringbase)
  4096  03A5  0084               	movwf	4
  4097  03A6  120A  118A  259F  120A  118A  	fcall	stringdir
  4098  03AB  120A  118A  2033  120A  118A  	fcall	i1fptable
  4099                           
  4100                           ;Interrupt/Interrupt.c: 18:     }
  4101  03B0  2BC2               	goto	i1l228
  4102  03B1                     i1l225:	
  4103                           ;Interrupt/Interrupt.c: 19:     else if(INTCONbits.INTF==1)
  4104                           
  4105  03B1  1C8B               	btfss	11,1	;volatile
  4106  03B2  2BB4               	goto	u186_21
  4107  03B3  2BB5               	goto	u186_20
  4108  03B4                     u186_21:
  4109  03B4  2BC2               	goto	i1l228
  4110  03B5                     u186_20:
  4111  03B5                     i1l2507:
  4112                           
  4113                           ;Interrupt/Interrupt.c: 20:     {;Interrupt/Interrupt.c: 21:       INTCONbits.INTF=0;
  4114  03B5  108B               	bcf	11,1	;volatile
  4115  03B6                     i1l2509:
  4116                           
  4117                           ;Interrupt/Interrupt.c: 22:       Interrupt_CbStruct.EXTI_CB();
  4118  03B6  300B               	movlw	low (((_Interrupt_CbStruct+1)-__stringbase)| (0+32768))
  4119  03B7  0084               	movwf	4
  4120  03B8  120A  118A  259F  120A  118A  	fcall	stringdir
  4121  03BD  120A  118A  2033  120A  118A  	fcall	i1fptable
  4122  03C2                     i1l228:
  4123  03C2  1283               	bcf	3,5	;RP0=0, select bank0
  4124  03C3  1303               	bcf	3,6	;RP1=0, select bank0
  4125  03C4  083B               	movf	??_ISR+3,w
  4126  03C5  00FF               	movwf	btemp+1
  4127  03C6  083A               	movf	??_ISR+2,w
  4128  03C7  008A               	movwf	10
  4129  03C8  0839               	movf	??_ISR+1,w
  4130  03C9  0084               	movwf	4
  4131  03CA  0E38               	swapf	??_ISR^0,w
  4132  03CB  0083               	movwf	3
  4133  03CC  0EFE               	swapf	btemp,f
  4134  03CD  0E7E               	swapf	btemp,w
  4135  03CE  0009               	retfie
  4136  03CF                     __end_of_ISR:
  4137                           
  4138                           	psect	intentry
  4139  0004                     __pintentry:	
  4140                           ;incstack = 0
  4141 ;; hardware stack exceeded
  4142                           ; Regs used in _ISR: [wreg-fsr0h+status,2+status,0+btemp+1+pclath+cstack]
  4143                           
  4144  0004                     interrupt_function:
  4145  007E                     saved_w	set	btemp
  4146  0004  00FE               	movwf	btemp
  4147  0005  0E03               	swapf	3,w
  4148  0006  1283               	bcf	3,5	;RP0=0, select bank0
  4149  0007  1303               	bcf	3,6	;RP1=0, select bank0
  4150  0008  00B8               	movwf	??_ISR
  4151  0009  0804               	movf	4,w
  4152  000A  00B9               	movwf	??_ISR+1
  4153  000B  080A               	movf	10,w
  4154  000C  00BA               	movwf	??_ISR+2
  4155  000D  087F               	movf	btemp+1,w
  4156  000E  00BB               	movwf	??_ISR+3
  4157  000F  120A  118A  2B9D   	ljmp	_ISR
  4158                           
  4159                           	psect	text28
  4160  053F                     __ptext28:	
  4161 ;; *************** function _Timer0_CB *****************
  4162 ;; Defined at:
  4163 ;;		line 36 in file "Timer/Timer.c"
  4164 ;; Parameters:    Size  Location     Type
  4165 ;;		None
  4166 ;; Auto vars:     Size  Location     Type
  4167 ;;		None
  4168 ;; Return value:  Size  Location     Type
  4169 ;;                  1    wreg      void 
  4170 ;; Registers used:
  4171 ;;		wreg, fsr0l, fsr0h, status,2, status,0, btemp+1, pclath, cstack
  4172 ;; Tracked objects:
  4173 ;;		On entry : 0/0
  4174 ;;		On exit  : 0/0
  4175 ;;		Unchanged: 0/0
  4176 ;; Data sizes:     COMMON   BANK0   BANK1   BANK3   BANK2
  4177 ;;      Params:         0       0       0       0       0
  4178 ;;      Locals:         0       0       0       0       0
  4179 ;;      Temps:          0       0       0       0       0
  4180 ;;      Totals:         0       0       0       0       0
  4181 ;;Total ram usage:        0 bytes
  4182 ;; Hardware stack levels used:    1
  4183 ;; Hardware stack levels required when called:    2
  4184 ;; This function calls:
  4185 ;;		_Scheduler_Active
  4186 ;; This function is called by:
  4187 ;;		_ISR
  4188 ;; This function uses a non-reentrant model
  4189 ;;
  4190                           
  4191                           
  4192                           ;psect for function _Timer0_CB
  4193  053F                     _Timer0_CB:
  4194  053F                     i1l2453:	
  4195                           ;incstack = 0
  4196 ;; hardware stack exceeded
  4197                           ; Regs used in _Timer0_CB: [wreg-fsr0h+status,2+status,0+btemp+1+pclath+cstack]
  4198                           
  4199  053F  3001               	movlw	1
  4200  0540  1283               	bcf	3,5	;RP0=0, select bank0
  4201  0541  1303               	bcf	3,6	;RP1=0, select bank0
  4202  0542  07BC               	addwf	_Tick,f
  4203  0543  3000               	movlw	0
  4204  0544  1803               	skipnc
  4205  0545  3001               	movlw	1
  4206  0546  07BD               	addwf	_Tick+1,f
  4207  0547  3000               	movlw	0
  4208  0548  1803               	skipnc
  4209  0549  3001               	movlw	1
  4210  054A  07BE               	addwf	_Tick+2,f
  4211  054B  3000               	movlw	0
  4212  054C  1803               	skipnc
  4213  054D  3001               	movlw	1
  4214  054E  07BF               	addwf	_Tick+3,f
  4215  054F                     i1l2455:
  4216                           
  4217                           ;Timer/Timer.c: 38:     Scheduler_Active(Tick);
  4218  054F  083F               	movf	_Tick+3,w
  4219  0550  00B0               	movwf	Scheduler_Active@System_Tick+3
  4220  0551  083E               	movf	_Tick+2,w
  4221  0552  00AF               	movwf	Scheduler_Active@System_Tick+2
  4222  0553  083D               	movf	_Tick+1,w
  4223  0554  00AE               	movwf	Scheduler_Active@System_Tick+1
  4224  0555  083C               	movf	_Tick,w
  4225  0556  00AD               	movwf	Scheduler_Active@System_Tick
  4226  0557  120A  118A  20B8  120A  118A  	fcall	_Scheduler_Active
  4227  055C                     i1l71:
  4228  055C  0008               	return
  4229  055D                     __end_of_Timer0_CB:
  4230                           
  4231                           	psect	text29
  4232  00B8                     __ptext29:	
  4233 ;; *************** function _Scheduler_Active *****************
  4234 ;; Defined at:
  4235 ;;		line 33 in file "Scheduler/Scheduler.c"
  4236 ;; Parameters:    Size  Location     Type
  4237 ;;  System_Tick     4   13[BANK0 ] unsigned long 
  4238 ;; Auto vars:     Size  Location     Type
  4239 ;;  i               1   23[BANK0 ] unsigned char 
  4240 ;; Return value:  Size  Location     Type
  4241 ;;                  1    wreg      void 
  4242 ;; Registers used:
  4243 ;;		wreg, fsr0l, fsr0h, status,2, status,0, btemp+1, pclath, cstack
  4244 ;; Tracked objects:
  4245 ;;		On entry : 0/0
  4246 ;;		On exit  : 0/0
  4247 ;;		Unchanged: 0/0
  4248 ;; Data sizes:     COMMON   BANK0   BANK1   BANK3   BANK2
  4249 ;;      Params:         0       4       0       0       0
  4250 ;;      Locals:         0       1       0       0       0
  4251 ;;      Temps:          0       6       0       0       0
  4252 ;;      Totals:         0      11       0       0       0
  4253 ;;Total ram usage:       11 bytes
  4254 ;; Hardware stack levels used:    1
  4255 ;; Hardware stack levels required when called:    1
  4256 ;; This function calls:
  4257 ;;		___lldiv
  4258 ;;		___llmod
  4259 ;;		i1___bmul
  4260 ;; This function is called by:
  4261 ;;		_Timer0_CB
  4262 ;; This function uses a non-reentrant model
  4263 ;;
  4264                           
  4265                           
  4266                           ;psect for function _Scheduler_Active
  4267  00B8                     _Scheduler_Active:
  4268  00B8                     i1l2285:	
  4269                           ;incstack = 0
  4270 ;; hardware stack exceeded
  4271                           ; Regs used in _Scheduler_Active: [wreg-fsr0h+status,2+status,0+btemp+1+pclath+cstack]
  4272                           
  4273                           
  4274                           ;Scheduler/Scheduler.c: 33: void Scheduler_Active(uint32_t System_Tick);Scheduler/Schedu
      +                          ler.c: 34: {;Scheduler/Scheduler.c: 35:     for(uint8_t i=0 ;i<(3UL);i++)
  4275  00B8  1283               	bcf	3,5	;RP0=0, select bank0
  4276  00B9  1303               	bcf	3,6	;RP1=0, select bank0
  4277  00BA  01B7               	clrf	Scheduler_Active@i
  4278  00BB                     i1l2291:
  4279                           
  4280                           ;Scheduler/Scheduler.c: 36:     {;Scheduler/Scheduler.c: 37:         if((System_Tick%(Ta
      +                          sks[i].Task_Peroid/(20UL))) ? 0:1)
  4281  00BB  3000               	movlw	0
  4282  00BC  00F6               	movwf	___lldiv@divisor+3
  4283  00BD  3000               	movlw	0
  4284  00BE  00F5               	movwf	___lldiv@divisor+2
  4285  00BF  3000               	movlw	0
  4286  00C0  00F4               	movwf	___lldiv@divisor+1
  4287  00C1  3014               	movlw	20
  4288  00C2  00F3               	movwf	___lldiv@divisor
  4289  00C3  3003               	movlw	3
  4290  00C4  00FF               	movwf	btemp+1
  4291  00C5  087F               	movf	btemp+1,w
  4292  00C6  00F0               	movwf	i1___bmul@multiplicand
  4293  00C7  0837               	movf	Scheduler_Active@i,w
  4294  00C8  120A  118A  258A  120A  118A  	fcall	i1___bmul
  4295  00CD  3E01               	addlw	low ((_Tasks-__stringbase)| (0+32768))
  4296  00CE  0084               	movwf	4
  4297  00CF  120A  118A  259F  120A  118A  	fcall	stringdir
  4298  00D4  1283               	bcf	3,5	;RP0=0, select bank0
  4299  00D5  1303               	bcf	3,6	;RP1=0, select bank0
  4300  00D6  00B1               	movwf	??_Scheduler_Active
  4301  00D7  120A  118A  259F  120A  118A  	fcall	stringdir
  4302  00DC  00B2               	movwf	??_Scheduler_Active+1
  4303  00DD  0831               	movf	??_Scheduler_Active,w
  4304  00DE  00B3               	movwf	??_Scheduler_Active+2
  4305  00DF  0832               	movf	??_Scheduler_Active+1,w
  4306  00E0  00B4               	movwf	??_Scheduler_Active+3
  4307  00E1  01B5               	clrf	??_Scheduler_Active+4
  4308  00E2  01B6               	clrf	??_Scheduler_Active+5
  4309  00E3  0836               	movf	??_Scheduler_Active+5,w
  4310  00E4  00FA               	movwf	___lldiv@dividend+3
  4311  00E5  0835               	movf	??_Scheduler_Active+4,w
  4312  00E6  00F9               	movwf	___lldiv@dividend+2
  4313  00E7  0834               	movf	??_Scheduler_Active+3,w
  4314  00E8  00F8               	movwf	___lldiv@dividend+1
  4315  00E9  0833               	movf	??_Scheduler_Active+2,w
  4316  00EA  00F7               	movwf	___lldiv@dividend
  4317  00EB  120A  118A  2191  120A  118A  	fcall	___lldiv
  4318  00F0  0876               	movf	?___lldiv+3,w
  4319  00F1  1283               	bcf	3,5	;RP0=0, select bank0
  4320  00F2  1303               	bcf	3,6	;RP1=0, select bank0
  4321  00F3  00A8               	movwf	___llmod@divisor+3
  4322  00F4  0875               	movf	?___lldiv+2,w
  4323  00F5  00A7               	movwf	___llmod@divisor+2
  4324  00F6  0874               	movf	?___lldiv+1,w
  4325  00F7  00A6               	movwf	___llmod@divisor+1
  4326  00F8  0873               	movf	?___lldiv,w
  4327  00F9  00A5               	movwf	___llmod@divisor
  4328  00FA  0830               	movf	Scheduler_Active@System_Tick+3,w
  4329  00FB  00AC               	movwf	___llmod@dividend+3
  4330  00FC  082F               	movf	Scheduler_Active@System_Tick+2,w
  4331  00FD  00AB               	movwf	___llmod@dividend+2
  4332  00FE  082E               	movf	Scheduler_Active@System_Tick+1,w
  4333  00FF  00AA               	movwf	___llmod@dividend+1
  4334  0100  082D               	movf	Scheduler_Active@System_Tick,w
  4335  0101  00A9               	movwf	___llmod@dividend
  4336  0102  120A  118A  2315  120A  118A  	fcall	___llmod
  4337  0107  1283               	bcf	3,5	;RP0=0, select bank0
  4338  0108  1303               	bcf	3,6	;RP1=0, select bank0
  4339  0109  0828               	movf	?___llmod+3,w
  4340  010A  0427               	iorwf	?___llmod+2,w
  4341  010B  0426               	iorwf	?___llmod+1,w
  4342  010C  0425               	iorwf	?___llmod,w
  4343  010D  1D03               	skipz
  4344  010E  2910               	goto	u154_21
  4345  010F  2911               	goto	u154_20
  4346  0110                     u154_21:
  4347  0110  2918               	goto	i1l2295
  4348  0111                     u154_20:
  4349  0111                     i1l2293:
  4350                           
  4351                           ;Scheduler/Scheduler.c: 38:         {;Scheduler/Scheduler.c: 39:             Task_Flag[i
      +                          ]=1;
  4352  0111  0837               	movf	Scheduler_Active@i,w
  4353  0112  3E52               	addlw	(low (_Task_Flag| 0))& (0+255)
  4354  0113  0084               	movwf	4
  4355  0114  1383               	bcf	3,7	;select IRP bank0
  4356  0115  0180               	clrf	0
  4357  0116  0A80               	incf	0,f
  4358                           
  4359                           ;Scheduler/Scheduler.c: 40:         }
  4360  0117  291D               	goto	i1l2297
  4361  0118                     i1l2295:
  4362                           
  4363                           ;Scheduler/Scheduler.c: 42:         {;Scheduler/Scheduler.c: 43:           Task_Flag[i]=
      +                          0;
  4364  0118  0837               	movf	Scheduler_Active@i,w
  4365  0119  3E52               	addlw	(low (_Task_Flag| 0))& (0+255)
  4366  011A  0084               	movwf	4
  4367  011B  1383               	bcf	3,7	;select IRP bank0
  4368  011C  0180               	clrf	0
  4369  011D                     i1l2297:
  4370                           
  4371                           ;Scheduler/Scheduler.c: 46:     }
  4372  011D  3001               	movlw	1
  4373  011E  00FF               	movwf	btemp+1
  4374  011F  087F               	movf	btemp+1,w
  4375  0120  07B7               	addwf	Scheduler_Active@i,f
  4376  0121                     i1l2299:
  4377  0121  3003               	movlw	3
  4378  0122  0237               	subwf	Scheduler_Active@i,w
  4379  0123  1C03               	skipc
  4380  0124  2926               	goto	u155_21
  4381  0125  2927               	goto	u155_20
  4382  0126                     u155_21:
  4383  0126  28BB               	goto	i1l2291
  4384  0127                     u155_20:
  4385  0127                     i1l52:
  4386  0127  0008               	return
  4387  0128                     __end_of_Scheduler_Active:
  4388                           
  4389                           	psect	text30
  4390  058A                     __ptext30:	
  4391 ;; *************** function i1___bmul *****************
  4392 ;; Defined at:
  4393 ;;		line 4 in file "C:\Program Files (x86)\Microchip\xc8\v2.20\pic\sources\c90\common\Umul8.c"
  4394 ;; Parameters:    Size  Location     Type
  4395 ;;  multiplier      1    wreg     unsigned char 
  4396 ;;  multiplicand    1    0[COMMON] unsigned char 
  4397 ;; Auto vars:     Size  Location     Type
  4398 ;;  multiplier      1    2[COMMON] unsigned char 
  4399 ;;  product         1    1[COMMON] unsigned char 
  4400 ;; Return value:  Size  Location     Type
  4401 ;;                  1    wreg      unsigned char 
  4402 ;; Registers used:
  4403 ;;		wreg, status,2, status,0, btemp+1
  4404 ;; Tracked objects:
  4405 ;;		On entry : 0/0
  4406 ;;		On exit  : 0/0
  4407 ;;		Unchanged: 0/0
  4408 ;; Data sizes:     COMMON   BANK0   BANK1   BANK3   BANK2
  4409 ;;      Params:         1       0       0       0       0
  4410 ;;      Locals:         2       0       0       0       0
  4411 ;;      Temps:          0       0       0       0       0
  4412 ;;      Totals:         3       0       0       0       0
  4413 ;;Total ram usage:        3 bytes
  4414 ;; Hardware stack levels used:    1
  4415 ;; This function calls:
  4416 ;;		Nothing
  4417 ;; This function is called by:
  4418 ;;		_Scheduler_Active
  4419 ;; This function uses a non-reentrant model
  4420 ;;
  4421                           
  4422                           
  4423                           ;psect for function i1___bmul
  4424  058A                     i1___bmul:
  4425                           
  4426                           ;incstack = 0
  4427 ;; hardware stack exceeded
  4428                           ; Regs used in i1___bmul: [wreg+status,2+status,0+btemp+1]
  4429                           ;i1___bmul@multiplier stored from wreg
  4430  058A  00F2               	movwf	i1___bmul@multiplier
  4431  058B                     i1l1743:
  4432  058B  01F1               	clrf	i1___bmul@product
  4433  058C                     i1l1745:
  4434  058C  1C72               	btfss	i1___bmul@multiplier,0
  4435  058D  2D8F               	goto	u99_21
  4436  058E  2D90               	goto	u99_20
  4437  058F                     u99_21:
  4438  058F  2D94               	goto	i1l1749
  4439  0590                     u99_20:
  4440  0590                     i1l1747:
  4441  0590  0870               	movf	i1___bmul@multiplicand,w
  4442  0591  00FF               	movwf	btemp+1
  4443  0592  087F               	movf	btemp+1,w
  4444  0593  07F1               	addwf	i1___bmul@product,f
  4445  0594                     i1l1749:
  4446  0594  1003               	clrc
  4447  0595  0DF0               	rlf	i1___bmul@multiplicand,f
  4448  0596                     i1l1751:
  4449  0596  1003               	clrc
  4450  0597  0CF2               	rrf	i1___bmul@multiplier,f
  4451  0598                     i1l1753:
  4452  0598  0872               	movf	i1___bmul@multiplier,w
  4453  0599  1D03               	btfss	3,2
  4454  059A  2D9C               	goto	u100_21
  4455  059B  2D9D               	goto	u100_20
  4456  059C                     u100_21:
  4457  059C  2D8C               	goto	i1l1745
  4458  059D                     u100_20:
  4459  059D                     i1l1755:
  4460  059D  0871               	movf	i1___bmul@product,w
  4461  059E                     i1l451:
  4462  059E  0008               	return
  4463  059F                     __end_ofi1___bmul:
  4464                           
  4465                           	psect	text31
  4466  0315                     __ptext31:	
  4467 ;; *************** function ___llmod *****************
  4468 ;; Defined at:
  4469 ;;		line 5 in file "C:\Program Files (x86)\Microchip\xc8\v2.20\pic\sources\c90\common\llmod.c"
  4470 ;; Parameters:    Size  Location     Type
  4471 ;;  divisor         4    5[BANK0 ] unsigned long 
  4472 ;;  dividend        4    9[BANK0 ] unsigned long 
  4473 ;; Auto vars:     Size  Location     Type
  4474 ;;  counter         1   13[COMMON] unsigned char 
  4475 ;; Return value:  Size  Location     Type
  4476 ;;                  4    5[BANK0 ] unsigned long 
  4477 ;; Registers used:
  4478 ;;		wreg, status,2, status,0, btemp+1
  4479 ;; Tracked objects:
  4480 ;;		On entry : 0/0
  4481 ;;		On exit  : 0/0
  4482 ;;		Unchanged: 0/0
  4483 ;; Data sizes:     COMMON   BANK0   BANK1   BANK3   BANK2
  4484 ;;      Params:         0       8       0       0       0
  4485 ;;      Locals:         1       0       0       0       0
  4486 ;;      Temps:          1       0       0       0       0
  4487 ;;      Totals:         2       8       0       0       0
  4488 ;;Total ram usage:       10 bytes
  4489 ;; Hardware stack levels used:    1
  4490 ;; This function calls:
  4491 ;;		Nothing
  4492 ;; This function is called by:
  4493 ;;		_Scheduler_Active
  4494 ;; This function uses a non-reentrant model
  4495 ;;
  4496                           
  4497                           
  4498                           ;psect for function ___llmod
  4499  0315                     ___llmod:
  4500  0315                     i1l1721:	
  4501                           ;incstack = 0
  4502 ;; hardware stack exceeded
  4503                           ; Regs used in ___llmod: [wreg+status,2+status,0+btemp+1]
  4504                           
  4505  0315  1283               	bcf	3,5	;RP0=0, select bank0
  4506  0316  1303               	bcf	3,6	;RP1=0, select bank0
  4507  0317  0828               	movf	___llmod@divisor+3,w
  4508  0318  0427               	iorwf	___llmod@divisor+2,w
  4509  0319  0426               	iorwf	___llmod@divisor+1,w
  4510  031A  0425               	iorwf	___llmod@divisor,w
  4511  031B  1903               	skipnz
  4512  031C  2B1E               	goto	u93_21
  4513  031D  2B1F               	goto	u93_20
  4514  031E                     u93_21:
  4515  031E  2B62               	goto	i1l1739
  4516  031F                     u93_20:
  4517  031F                     i1l1723:
  4518  031F  01FD               	clrf	___llmod@counter
  4519  0320  0AFD               	incf	___llmod@counter,f
  4520  0321  2B2F               	goto	i1l1729
  4521  0322                     i1l1725:
  4522  0322  3001               	movlw	1
  4523  0323  00FC               	movwf	??___llmod
  4524  0324                     u94_25:
  4525  0324  1003               	clrc
  4526  0325  0DA5               	rlf	___llmod@divisor,f
  4527  0326  0DA6               	rlf	___llmod@divisor+1,f
  4528  0327  0DA7               	rlf	___llmod@divisor+2,f
  4529  0328  0DA8               	rlf	___llmod@divisor+3,f
  4530  0329  0BFC               	decfsz	??___llmod,f
  4531  032A  2B24               	goto	u94_25
  4532  032B                     i1l1727:
  4533  032B  3001               	movlw	1
  4534  032C  00FF               	movwf	btemp+1
  4535  032D  087F               	movf	btemp+1,w
  4536  032E  07FD               	addwf	___llmod@counter,f
  4537  032F                     i1l1729:
  4538  032F  1FA8               	btfss	___llmod@divisor+3,7
  4539  0330  2B32               	goto	u95_21
  4540  0331  2B33               	goto	u95_20
  4541  0332                     u95_21:
  4542  0332  2B22               	goto	i1l1725
  4543  0333                     u95_20:
  4544  0333                     i1l1731:
  4545  0333  0828               	movf	___llmod@divisor+3,w
  4546  0334  022C               	subwf	___llmod@dividend+3,w
  4547  0335  1D03               	skipz
  4548  0336  2B41               	goto	u96_25
  4549  0337  0827               	movf	___llmod@divisor+2,w
  4550  0338  022B               	subwf	___llmod@dividend+2,w
  4551  0339  1D03               	skipz
  4552  033A  2B41               	goto	u96_25
  4553  033B  0826               	movf	___llmod@divisor+1,w
  4554  033C  022A               	subwf	___llmod@dividend+1,w
  4555  033D  1D03               	skipz
  4556  033E  2B41               	goto	u96_25
  4557  033F  0825               	movf	___llmod@divisor,w
  4558  0340  0229               	subwf	___llmod@dividend,w
  4559  0341                     u96_25:
  4560  0341  1C03               	skipc
  4561  0342  2B44               	goto	u96_21
  4562  0343  2B45               	goto	u96_20
  4563  0344                     u96_21:
  4564  0344  2B53               	goto	i1l1735
  4565  0345                     u96_20:
  4566  0345                     i1l1733:
  4567  0345  0825               	movf	___llmod@divisor,w
  4568  0346  02A9               	subwf	___llmod@dividend,f
  4569  0347  0826               	movf	___llmod@divisor+1,w
  4570  0348  1C03               	skipc
  4571  0349  0F26               	incfsz	___llmod@divisor+1,w
  4572  034A  02AA               	subwf	___llmod@dividend+1,f
  4573  034B  0827               	movf	___llmod@divisor+2,w
  4574  034C  1C03               	skipc
  4575  034D  0F27               	incfsz	___llmod@divisor+2,w
  4576  034E  02AB               	subwf	___llmod@dividend+2,f
  4577  034F  0828               	movf	___llmod@divisor+3,w
  4578  0350  1C03               	skipc
  4579  0351  0F28               	incfsz	___llmod@divisor+3,w
  4580  0352  02AC               	subwf	___llmod@dividend+3,f
  4581  0353                     i1l1735:
  4582  0353  3001               	movlw	1
  4583  0354                     u97_25:
  4584  0354  1003               	clrc
  4585  0355  0CA8               	rrf	___llmod@divisor+3,f
  4586  0356  0CA7               	rrf	___llmod@divisor+2,f
  4587  0357  0CA6               	rrf	___llmod@divisor+1,f
  4588  0358  0CA5               	rrf	___llmod@divisor,f
  4589  0359  3EFF               	addlw	-1
  4590  035A  1D03               	skipz
  4591  035B  2B54               	goto	u97_25
  4592  035C                     i1l1737:
  4593  035C  3001               	movlw	1
  4594  035D  02FD               	subwf	___llmod@counter,f
  4595  035E  1D03               	btfss	3,2
  4596  035F  2B61               	goto	u98_21
  4597  0360  2B62               	goto	u98_20
  4598  0361                     u98_21:
  4599  0361  2B33               	goto	i1l1731
  4600  0362                     u98_20:
  4601  0362                     i1l1739:
  4602  0362  082C               	movf	___llmod@dividend+3,w
  4603  0363  00A8               	movwf	?___llmod+3
  4604  0364  082B               	movf	___llmod@dividend+2,w
  4605  0365  00A7               	movwf	?___llmod+2
  4606  0366  082A               	movf	___llmod@dividend+1,w
  4607  0367  00A6               	movwf	?___llmod+1
  4608  0368  0829               	movf	___llmod@dividend,w
  4609  0369  00A5               	movwf	?___llmod
  4610  036A                     i1l647:
  4611  036A  0008               	return
  4612  036B                     __end_of___llmod:
  4613                           
  4614                           	psect	text32
  4615  0191                     __ptext32:	
  4616 ;; *************** function ___lldiv *****************
  4617 ;; Defined at:
  4618 ;;		line 5 in file "C:\Program Files (x86)\Microchip\xc8\v2.20\pic\sources\c90\common\__lldiv.c"
  4619 ;; Parameters:    Size  Location     Type
  4620 ;;  divisor         4    3[COMMON] unsigned long 
  4621 ;;  dividend        4    7[COMMON] unsigned long 
  4622 ;; Auto vars:     Size  Location     Type
  4623 ;;  quotient        4    0[BANK0 ] unsigned long 
  4624 ;;  counter         1    4[BANK0 ] unsigned char 
  4625 ;; Return value:  Size  Location     Type
  4626 ;;                  4    3[COMMON] unsigned long 
  4627 ;; Registers used:
  4628 ;;		wreg, status,2, status,0, btemp+1
  4629 ;; Tracked objects:
  4630 ;;		On entry : 0/0
  4631 ;;		On exit  : 0/0
  4632 ;;		Unchanged: 0/0
  4633 ;; Data sizes:     COMMON   BANK0   BANK1   BANK3   BANK2
  4634 ;;      Params:         8       0       0       0       0
  4635 ;;      Locals:         0       5       0       0       0
  4636 ;;      Temps:          1       0       0       0       0
  4637 ;;      Totals:         9       5       0       0       0
  4638 ;;Total ram usage:       14 bytes
  4639 ;; Hardware stack levels used:    1
  4640 ;; This function calls:
  4641 ;;		Nothing
  4642 ;; This function is called by:
  4643 ;;		_Scheduler_Active
  4644 ;; This function uses a non-reentrant model
  4645 ;;
  4646                           
  4647                           
  4648                           ;psect for function ___lldiv
  4649  0191                     ___lldiv:
  4650  0191                     i1l1695:	
  4651                           ;incstack = 0
  4652 ;; hardware stack exceeded
  4653                           ; Regs used in ___lldiv: [wreg+status,2+status,0+btemp+1]
  4654                           
  4655  0191  3000               	movlw	0
  4656  0192  1283               	bcf	3,5	;RP0=0, select bank0
  4657  0193  1303               	bcf	3,6	;RP1=0, select bank0
  4658  0194  00A3               	movwf	___lldiv@quotient+3
  4659  0195  3000               	movlw	0
  4660  0196  00A2               	movwf	___lldiv@quotient+2
  4661  0197  3000               	movlw	0
  4662  0198  00A1               	movwf	___lldiv@quotient+1
  4663  0199  3000               	movlw	0
  4664  019A  00A0               	movwf	___lldiv@quotient
  4665  019B  0876               	movf	___lldiv@divisor+3,w
  4666  019C  0475               	iorwf	___lldiv@divisor+2,w
  4667  019D  0474               	iorwf	___lldiv@divisor+1,w
  4668  019E  0473               	iorwf	___lldiv@divisor,w
  4669  019F  1903               	skipnz
  4670  01A0  29A2               	goto	u86_21
  4671  01A1  29A3               	goto	u86_20
  4672  01A2                     u86_21:
  4673  01A2  29F0               	goto	i1l1717
  4674  01A3                     u86_20:
  4675  01A3                     i1l1697:
  4676  01A3  01A4               	clrf	___lldiv@counter
  4677  01A4  0AA4               	incf	___lldiv@counter,f
  4678  01A5  29B3               	goto	i1l1703
  4679  01A6                     i1l1699:
  4680  01A6  3001               	movlw	1
  4681  01A7  00FB               	movwf	??___lldiv
  4682  01A8                     u87_25:
  4683  01A8  1003               	clrc
  4684  01A9  0DF3               	rlf	___lldiv@divisor,f
  4685  01AA  0DF4               	rlf	___lldiv@divisor+1,f
  4686  01AB  0DF5               	rlf	___lldiv@divisor+2,f
  4687  01AC  0DF6               	rlf	___lldiv@divisor+3,f
  4688  01AD  0BFB               	decfsz	??___lldiv,f
  4689  01AE  29A8               	goto	u87_25
  4690  01AF                     i1l1701:
  4691  01AF  3001               	movlw	1
  4692  01B0  00FF               	movwf	btemp+1
  4693  01B1  087F               	movf	btemp+1,w
  4694  01B2  07A4               	addwf	___lldiv@counter,f
  4695  01B3                     i1l1703:
  4696  01B3  1FF6               	btfss	___lldiv@divisor+3,7
  4697  01B4  29B6               	goto	u88_21
  4698  01B5  29B7               	goto	u88_20
  4699  01B6                     u88_21:
  4700  01B6  29A6               	goto	i1l1699
  4701  01B7                     u88_20:
  4702  01B7                     i1l1705:
  4703  01B7  3001               	movlw	1
  4704  01B8  00FB               	movwf	??___lldiv
  4705  01B9                     u89_25:
  4706  01B9  1003               	clrc
  4707  01BA  0DA0               	rlf	___lldiv@quotient,f
  4708  01BB  0DA1               	rlf	___lldiv@quotient+1,f
  4709  01BC  0DA2               	rlf	___lldiv@quotient+2,f
  4710  01BD  0DA3               	rlf	___lldiv@quotient+3,f
  4711  01BE  0BFB               	decfsz	??___lldiv,f
  4712  01BF  29B9               	goto	u89_25
  4713  01C0                     i1l1707:
  4714  01C0  0876               	movf	___lldiv@divisor+3,w
  4715  01C1  027A               	subwf	___lldiv@dividend+3,w
  4716  01C2  1D03               	skipz
  4717  01C3  29CE               	goto	u90_25
  4718  01C4  0875               	movf	___lldiv@divisor+2,w
  4719  01C5  0279               	subwf	___lldiv@dividend+2,w
  4720  01C6  1D03               	skipz
  4721  01C7  29CE               	goto	u90_25
  4722  01C8  0874               	movf	___lldiv@divisor+1,w
  4723  01C9  0278               	subwf	___lldiv@dividend+1,w
  4724  01CA  1D03               	skipz
  4725  01CB  29CE               	goto	u90_25
  4726  01CC  0873               	movf	___lldiv@divisor,w
  4727  01CD  0277               	subwf	___lldiv@dividend,w
  4728  01CE                     u90_25:
  4729  01CE  1C03               	skipc
  4730  01CF  29D1               	goto	u90_21
  4731  01D0  29D2               	goto	u90_20
  4732  01D1                     u90_21:
  4733  01D1  29E1               	goto	i1l1713
  4734  01D2                     u90_20:
  4735  01D2                     i1l1709:
  4736  01D2  0873               	movf	___lldiv@divisor,w
  4737  01D3  02F7               	subwf	___lldiv@dividend,f
  4738  01D4  0874               	movf	___lldiv@divisor+1,w
  4739  01D5  1C03               	skipc
  4740  01D6  0F74               	incfsz	___lldiv@divisor+1,w
  4741  01D7  02F8               	subwf	___lldiv@dividend+1,f
  4742  01D8  0875               	movf	___lldiv@divisor+2,w
  4743  01D9  1C03               	skipc
  4744  01DA  0F75               	incfsz	___lldiv@divisor+2,w
  4745  01DB  02F9               	subwf	___lldiv@dividend+2,f
  4746  01DC  0876               	movf	___lldiv@divisor+3,w
  4747  01DD  1C03               	skipc
  4748  01DE  0F76               	incfsz	___lldiv@divisor+3,w
  4749  01DF  02FA               	subwf	___lldiv@dividend+3,f
  4750  01E0                     i1l1711:
  4751  01E0  1420               	bsf	___lldiv@quotient,0
  4752  01E1                     i1l1713:
  4753  01E1  3001               	movlw	1
  4754  01E2                     u91_25:
  4755  01E2  1003               	clrc
  4756  01E3  0CF6               	rrf	___lldiv@divisor+3,f
  4757  01E4  0CF5               	rrf	___lldiv@divisor+2,f
  4758  01E5  0CF4               	rrf	___lldiv@divisor+1,f
  4759  01E6  0CF3               	rrf	___lldiv@divisor,f
  4760  01E7  3EFF               	addlw	-1
  4761  01E8  1D03               	skipz
  4762  01E9  29E2               	goto	u91_25
  4763  01EA                     i1l1715:
  4764  01EA  3001               	movlw	1
  4765  01EB  02A4               	subwf	___lldiv@counter,f
  4766  01EC  1D03               	btfss	3,2
  4767  01ED  29EF               	goto	u92_21
  4768  01EE  29F0               	goto	u92_20
  4769  01EF                     u92_21:
  4770  01EF  29B7               	goto	i1l1705
  4771  01F0                     u92_20:
  4772  01F0                     i1l1717:
  4773  01F0  0823               	movf	___lldiv@quotient+3,w
  4774  01F1  00F6               	movwf	?___lldiv+3
  4775  01F2  0822               	movf	___lldiv@quotient+2,w
  4776  01F3  00F5               	movwf	?___lldiv+2
  4777  01F4  0821               	movf	___lldiv@quotient+1,w
  4778  01F5  00F4               	movwf	?___lldiv+1
  4779  01F6  0820               	movf	___lldiv@quotient,w
  4780  01F7  00F3               	movwf	?___lldiv
  4781  01F8                     i1l461:
  4782  01F8  0008               	return
  4783  01F9                     __end_of___lldiv:
  4784                           
  4785                           	psect	text33
  4786  05F3                     __ptext33:	
  4787 ;; *************** function _EXTI_SettingButton_CB *****************
  4788 ;; Defined at:
  4789 ;;		line 45 in file "Buttons/Buttons.c"
  4790 ;; Parameters:    Size  Location     Type
  4791 ;;		None
  4792 ;; Auto vars:     Size  Location     Type
  4793 ;;		None
  4794 ;; Return value:  Size  Location     Type
  4795 ;;                  1    wreg      void 
  4796 ;; Registers used:
  4797 ;;		None
  4798 ;; Tracked objects:
  4799 ;;		On entry : 0/0
  4800 ;;		On exit  : 0/0
  4801 ;;		Unchanged: 0/0
  4802 ;; Data sizes:     COMMON   BANK0   BANK1   BANK3   BANK2
  4803 ;;      Params:         0       0       0       0       0
  4804 ;;      Locals:         0       0       0       0       0
  4805 ;;      Temps:          0       0       0       0       0
  4806 ;;      Totals:         0       0       0       0       0
  4807 ;;Total ram usage:        0 bytes
  4808 ;; Hardware stack levels used:    1
  4809 ;; This function calls:
  4810 ;;		Nothing
  4811 ;; This function is called by:
  4812 ;;		_ISR
  4813 ;; This function uses a non-reentrant model
  4814 ;;
  4815                           
  4816                           
  4817                           ;psect for function _EXTI_SettingButton_CB
  4818  05F3                     _EXTI_SettingButton_CB:
  4819  05F3                     i1l1939:	
  4820                           ;incstack = 0
  4821                           ; Regs used in _EXTI_SettingButton_CB: []
  4822                           
  4823                           
  4824                           ;Buttons/Buttons.c: 47:     ButtonsFlag.SettingButton_Flag=1;
  4825  05F3  1283               	bcf	3,5	;RP0=0, select bank0
  4826  05F4  1303               	bcf	3,6	;RP1=0, select bank0
  4827  05F5  1549               	bsf	_ButtonsFlag,2
  4828  05F6                     i1l98:
  4829  05F6  0008               	return
  4830  05F7                     __end_of_EXTI_SettingButton_CB:
  4831  0004                     
  4832                           	psect	functab
  4833  0022                     __pfunctab:
  4834  0022                     __fptable:
  4835  0022                     fptable:
  4836  0022  00FF               	movwf	(btemp+1)& (0+127)
  4837  0023  3000               	movlw	high fptable
  4838  0024  008A               	movwf	10
  4839  0025  087F               	movf	(btemp+1)& (0+127),w
  4840  0026  0782               	addwf	2,f
  4841  0027                     fpbase:
  4842  0027  2827               	goto	fpbase	; Call via a null pointer and you will get stuck here.
  4843  0028                     fp_u0:
  4844  0028  2828               	ljmp	fp_u0	; unused
  4845  0029                     fp_u1:
  4846  0029  2829               	ljmp	fp_u1	; unused
  4847  002A                     fp__Scheduler_Task3:
  4848  002A  120A  118A  2DE3   	ljmp	_Scheduler_Task3
  4849  002D                     fp__Scheduler_Task1:
  4850  002D  120A  118A  2DDD   	ljmp	_Scheduler_Task1
  4851  0030                     fp__Scheduler_Task2:
  4852  0030  120A  118A  2DD7   	ljmp	_Scheduler_Task2
  4853  0033                     __end_of__fptable:
  4854  0033                     __i1fptable:
  4855  0033                     i1fptable:
  4856  0033  00FF               	movwf	(btemp+1)& (0+127)
  4857  0034  3000               	movlw	high i1fptable
  4858  0035  008A               	movwf	10
  4859  0036  087F               	movf	(btemp+1)& (0+127),w
  4860  0037  0782               	addwf	2,f
  4861  0038                     i1fpbase:
  4862  0038  2838               	goto	i1fpbase	; Call via a null pointer and you will get stuck here.
  4863  0039                     fp__EXTI_SettingButton_CB:
  4864  0039  120A  118A  2DF3   	ljmp	_EXTI_SettingButton_CB
  4865  003C                     fp__Timer0_CB:
  4866  003C  120A  118A  2D3F   	ljmp	_Timer0_CB
  4867  003F                     __end_of__i1fptable:
  4868  007E                     btemp	set	126	;btemp
  4869  007E                     wtemp0	set	126
  4870                           
  4871                           	psect	config
  4872                           
  4873                           ;Config register CONFIG @ 0x2007
  4874                           ;	Oscillator Selection bits
  4875                           ;	FOSC = HS, HS oscillator
  4876                           ;	Watchdog Timer Enable bit
  4877                           ;	WDTE = OFF, WDT disabled
  4878                           ;	Power-up Timer Enable bit
  4879                           ;	PWRTE = OFF, PWRT disabled
  4880                           ;	Brown-out Reset Enable bit
  4881                           ;	BOREN = OFF, BOR disabled
  4882                           ;	Low-Voltage (Single-Supply) In-Circuit Serial Programming Enable bit
  4883                           ;	LVP = OFF, RB3 is digital I/O, HV on MCLR must be used for programming
  4884                           ;	Data EEPROM Memory Code Protection bit
  4885                           ;	CPD = OFF, Data EEPROM code protection off
  4886                           ;	Flash Program Memory Write Enable bits
  4887                           ;	WRT = OFF, Write protection off; all program memory may be written to by EECON control
  4888                           ;	In-Circuit Debugger Mode bit
  4889                           ;	DEBUG = 0x1, unprogrammed default
  4890                           ;	Flash Program Memory Code Protection bit
  4891                           ;	CP = OFF, Code protection off
  4892  2007                     	org	8199
  4893  2007  3F3A               	dw	16186

Data Sizes:
    Strings     0
    Constant    11
    Data        0
    BSS         25
    Persistent  0
    Stack       0

Auto Spaces:
    Space          Size  Autos    Used
    COMMON           14     14      14
    BANK0            80     28      53
    BANK1            80     10      10
    BANK3            96      0       0
    BANK2            96      0       0

Pointer List with Targets:

    memset@p1	PTR void  size(1) Largest target is 3
		 -> Debounce_DownButton(BANK0[3]), Debounce_UpButton(BANK0[3]), Task_Flag(BANK0[3]), 

    memset@p	PTR unsigned char  size(1) Largest target is 3
		 -> Debounce_DownButton(BANK0[3]), Debounce_UpButton(BANK0[3]), Task_Flag(BANK0[3]), 

    S333Interrupt_CbStruct_T$EXTI_CB	PTR FTN()void  size(1) Largest target is 1
		 -> EXTI_SettingButton_CB(), 

    Interrupt_CbStruct.EXTI_CB	PTR FTN()void  size(1) Largest target is 1
		 -> EXTI_SettingButton_CB(), 

    S333Interrupt_CbStruct_T$Timer_CB	PTR FTN()void  size(1) Largest target is 1
		 -> Timer0_CB(), 

    Interrupt_CbStruct.Timer_CB	PTR FTN()void  size(1) Largest target is 1
		 -> Timer0_CB(), 

    S85Tasks_T$Task	PTR FTN()void  size(1) Largest target is 1
		 -> Scheduler_Task3(), Scheduler_Task2(), Scheduler_Task1(), 

    Tasks.Task	PTR FTN()void  size(1) Largest target is 1
		 -> Scheduler_Task3(), Scheduler_Task2(), Scheduler_Task1(), 

    sp__memset	PTR void  size(1) Largest target is 3
		 -> Debounce_DownButton(BANK0[3]), Debounce_UpButton(BANK0[3]), Task_Flag(BANK0[3]), 


Critical Paths under _main in COMMON

    None.

Critical Paths under _ISR in COMMON

    _Scheduler_Active->___llmod
    ___llmod->___lldiv
    ___lldiv->i1___bmul

Critical Paths under _main in BANK0

    None.

Critical Paths under _ISR in BANK0

    _Timer0_CB->_Scheduler_Active
    _Scheduler_Active->___llmod
    ___llmod->___lldiv

Critical Paths under _main in BANK1

    _main->_Display_Init
    _Scheduler_Task3->_Clock_Update
    _Scheduler_Task2->_ModeManager_Update
    _Scheduler_Task1->_Display_Update
    _Display_Normal->_SSD_Display
    _Scheduler_Init->_memset
    _Display_Init->___awdiv

Critical Paths under _ISR in BANK1

    None.

Critical Paths under _main in BANK3

    None.

Critical Paths under _ISR in BANK3

    None.

Critical Paths under _main in BANK2

    None.

Critical Paths under _ISR in BANK2

    None.

Call Graph Tables:

 ---------------------------------------------------------------------------------
 (Depth) Function   	        Calls       Base Space   Used Autos Params    Refs
 ---------------------------------------------------------------------------------
 (0) _main                                                 0     0      0    3053
                         _Clock_Init
                       _Display_Init
                          _GPIO_Init
                   _ModeManager_Init
                     _Scheduler_Init
                   _Scheduler_Update
                         _Timer_Init
                        _Timer_Start
 ---------------------------------------------------------------------------------
 (1) _Timer_Start                                          0     0      0       0
 ---------------------------------------------------------------------------------
 (1) _Timer_Init                                           0     0      0       0
 ---------------------------------------------------------------------------------
 (1) _Scheduler_Update                                     1     1      0     340
                                              5 BANK1      1     1      0
                    _Scheduler_Task1 *
                    _Scheduler_Task2 *
                    _Scheduler_Task3 *
                             ___bmul
 ---------------------------------------------------------------------------------
 (2) ___bmul                                               3     2      1     179
                                              0 BANK1      3     2      1
 ---------------------------------------------------------------------------------
 (2) _Scheduler_Task3                                      0     0      0       0
                       _Clock_Update
 ---------------------------------------------------------------------------------
 (3) _Clock_Update                                         2     2      0       0
                                              0 BANK1      2     2      0
                 _Clock_Hour_Setting
              _Clock_Minutes_Setting
                       _Clock_Normal
 ---------------------------------------------------------------------------------
 (4) _Clock_Normal                                         0     0      0       0
 ---------------------------------------------------------------------------------
 (4) _Clock_Minutes_Setting                                0     0      0       0
 ---------------------------------------------------------------------------------
 (4) _Clock_Hour_Setting                                   0     0      0       0
 ---------------------------------------------------------------------------------
 (2) _Scheduler_Task2                                      0     0      0       0
                 _ModeManager_Update
 ---------------------------------------------------------------------------------
 (3) _ModeManager_Update                                   2     2      0       0
                                              0 BANK1      2     2      0
 ---------------------------------------------------------------------------------
 (2) _Scheduler_Task1                                      0     0      0      31
                     _Display_Update
 ---------------------------------------------------------------------------------
 (3) _Display_Update                                       2     2      0      31
                                              3 BANK1      2     2      0
               _Display_Hour_Setting
            _Display_Minutes_Setting
                     _Display_Normal
 ---------------------------------------------------------------------------------
 (4) _Display_Normal                                       0     0      0      31
                  _SSD_DigitSelector
                        _SSD_Display
 ---------------------------------------------------------------------------------
 (5) _SSD_Display                                          3     3      0      31
                                              0 BANK1      3     3      0
 ---------------------------------------------------------------------------------
 (5) _SSD_DigitSelector                                    2     2      0       0
                                              0 BANK1      2     2      0
 ---------------------------------------------------------------------------------
 (4) _Display_Minutes_Setting                              0     0      0       0
 ---------------------------------------------------------------------------------
 (4) _Display_Hour_Setting                                 0     0      0       0
 ---------------------------------------------------------------------------------
 (1) _Scheduler_Init                                       0     0      0     935
                             _memset
 ---------------------------------------------------------------------------------
 (2) _memset                                               6     2      4     935
                                              0 BANK1      6     2      4
 ---------------------------------------------------------------------------------
 (1) _ModeManager_Init                                     0     0      0       0
 ---------------------------------------------------------------------------------
 (1) _GPIO_Init                                            0     0      0       0
 ---------------------------------------------------------------------------------
 (1) _Display_Init                                         2     2      0    1778
                                              8 BANK1      2     2      0
                            ___awdiv
                            ___awmod
 ---------------------------------------------------------------------------------
 (2) ___awmod                                              6     2      4     973
                                              0 BANK1      6     2      4
 ---------------------------------------------------------------------------------
 (2) ___awdiv                                              8     4      4     805
                                              0 BANK1      8     4      4
 ---------------------------------------------------------------------------------
 (1) _Clock_Init                                           0     0      0       0
 ---------------------------------------------------------------------------------
 Estimated maximum stack depth 5
 ---------------------------------------------------------------------------------
 (Depth) Function   	        Calls       Base Space   Used Autos Params    Refs
 ---------------------------------------------------------------------------------
 (6) _ISR                                                  4     4      0     994
                                             24 BANK0      4     4      0
              _EXTI_SettingButton_CB *
                          _Timer0_CB *
 ---------------------------------------------------------------------------------
 (7) _Timer0_CB                                            0     0      0     994
                   _Scheduler_Active
 ---------------------------------------------------------------------------------
 (8) _Scheduler_Active                                    11     7      4     994
                                             13 BANK0     11     7      4
                            ___lldiv
                            ___llmod
                           i1___bmul
 ---------------------------------------------------------------------------------
 (9) i1___bmul                                             3     2      1      87
                                              0 COMMON     3     2      1
 ---------------------------------------------------------------------------------
 (9) ___llmod                                             10     2      8     311
                                             12 COMMON     2     2      0
                                              5 BANK0      8     0      8
                            ___lldiv (ARG)
                           i1___bmul (ARG)
 ---------------------------------------------------------------------------------
 (9) ___lldiv                                             14     6      8     314
                                              3 COMMON     9     1      8
                                              0 BANK0      5     5      0
                           i1___bmul (ARG)
 ---------------------------------------------------------------------------------
 (7) _EXTI_SettingButton_CB                                0     0      0       0
 ---------------------------------------------------------------------------------
 Estimated maximum stack depth 9
 ---------------------------------------------------------------------------------

 Call Graph Graphs:

 _main (ROOT)
   _Clock_Init
   _Display_Init
     ___awdiv
     ___awmod
   _GPIO_Init
   _ModeManager_Init
   _Scheduler_Init
     _memset
   _Scheduler_Update
     _Scheduler_Task1 *
       _Display_Update
         _Display_Hour_Setting
         _Display_Minutes_Setting
         _Display_Normal
           _SSD_DigitSelector
           _SSD_Display
     _Scheduler_Task2 *
       _ModeManager_Update
     _Scheduler_Task3 *
       _Clock_Update
         _Clock_Hour_Setting
         _Clock_Minutes_Setting
         _Clock_Normal
     ___bmul *
   _Timer_Init
   _Timer_Start

 _ISR (ROOT)
   _EXTI_SettingButton_CB *
   _Timer0_CB *
     _Scheduler_Active
       ___lldiv
         i1___bmul (ARG)
       ___llmod
         ___lldiv (ARG)
           i1___bmul (ARG)
         i1___bmul (ARG)
       i1___bmul

 Address spaces:
Name               Size   Autos  Total    Cost      Usage
BITCOMMON            E      0       0       0        0.0%
EEDATA             100      0       0       0        0.0%
NULL                 0      0       0       0        0.0%
CODE                 0      0       0       0        0.0%
COMMON               E      E       E       1      100.0%
BITSFR0              0      0       0       1        0.0%
SFR0                 0      0       0       1        0.0%
BITSFR1              0      0       0       2        0.0%
SFR1                 0      0       0       2        0.0%
STACK                0      0       0       2        0.0%
ABS                  0      0      4D       3        0.0%
BITBANK0            50      0       0       4        0.0%
BITSFR3              0      0       0       4        0.0%
SFR3                 0      0       0       4        0.0%
BANK0               50     1C      35       5       66.2%
BITSFR2              0      0       0       5        0.0%
SFR2                 0      0       0       5        0.0%
BITBANK1            50      0       0       6        0.0%
BANK1               50      A       A       7       12.5%
BITBANK3            60      0       0       8        0.0%
BANK3               60      0       0       9        0.0%
BITBANK2            60      0       0      10        0.0%
BANK2               60      0       0      11        0.0%
DATA                 0      0      4D      12        0.0%


Microchip Technology PIC Macro Assembler V2.20 build 20200408173844 
Symbol Table                                                                                   Tue Jul 21 03:26:44 2020

                               pc 0002                    ___bmul@product 00A1                                l27 0482  
                              l36 05BF                                l39 03CF                                l65 05CE  
                              l68 05F8                      ___awdiv@sign 00A5                                fsr 0004  
                             l112 0577                               l203 05F2                               l108 0574  
                             l212 042D                               l135 0589                               l208 0406  
                             l209 042B                               l306 039C                               l251 05E2  
                             l164 00B7                               l180 05FA                               l324 025A  
                             l172 04DA                               l254 05DC                               l183 05F9  
                             l319 0201                               l272 05EE                               l280 04AF  
                             l177 053E                               l257 05E8                               l339 02B9  
                             l451 0573                               l286 04FE                               l296 0459  
                             l289 0445                               l299 0386                               l591 0314  
                             l578 0190                               l879 0520                               _ISR 039D  
                             fsr0 0004                               indf 0000                      ___awmod@sign 00A5  
                            ?_ISR 0070                              l2111 0269                              l2121 0282  
                            l2113 026E                              l2105 025E                              l2201 0457  
                            l2123 0287                              l2115 0273                              l2107 025F  
                            l2211 037F                              l2203 036B                              l2141 0204  
                            l2125 028C                              l2117 0278                              l2109 0264  
                            l2221 0395                              l2213 0381                              l2205 0371  
                            l2301 05DD                              l2151 0253                              l2143 0210  
                            l2119 027D                              l2231 04BD                              l2223 039A  
                            l2215 038A                              l2207 0375                              l2303 05D7  
                            l2311 0565                              l2401 0310                              l2145 021E  
                            l2137 01F9                              l2129 0291                              l2161 052C  
                            l2225 04B0                              l2217 038E                              l2209 037B  
                            l2305 05E3                              l2313 0569                              l2331 0136  
                            l2323 0128                              l2411 0578                              l2147 022C  
                            l2163 0533                              l2227 04B1                              l2235 04C3  
                            l2243 03FF                              l2219 0393                              l2171 04E7  
                            l2315 056B                              l2307 0560                              l2341 014B  
                            l2333 013A                              l2325 012B                              l2413 057C  
                            l2405 0574                              l2149 023B                              l2165 0539  
                            l2157 0521                              l2229 04B7                              l2253 0416  
                            l2181 04F7                              l2173 04EB                              l2261 0486  
                            l2317 056D                              l2309 0561                              l2351 016E  
                            l2343 014E                              l2335 013F                              l2327 012F  
                            l2423 003F                              l2415 0580                              l2159 0527  
                            l2247 040B                              l2191 043E                              l2183 04FD  
                            l2175 04EC                              l2167 04DB                              l2263 048C  
                            l2319 0572                              l2431 05C9            ?_Clock_Minutes_Setting 0070  
                            l2425 05E9                              l2361 0187                              l2353 0174  
                            l2345 0155                              l2337 0143                              l2329 0134  
                            l2417 0584                              l2281 050E                              l2249 0412  
                            l2193 0440                              l2185 042E                              l2177 04F2  
                            l2169 04E1                              l2265 0492                              l2433 05CD  
                            l2363 018C                              l2355 0175                              l2347 0159  
                            l2339 0145                              l2371 02C1                              l2419 0588  
                            l2427 05EF                              l2283 0512                              l2435 05B0  
                            l2195 0449                              l2187 0434                              l2179 04F6  
                            l2259 0485                              l2451 03F7                              l2357 017C  
                            l2349 015D                              l2381 02D7                              l2373 02C6  
                            l2277 0502                              l2197 044D                              l2189 0438  
                            l2269 0498                              l2445 03D2                              l2429 05C0  
                            l2437 05F7                              l2461 0469                              l2359 0182  
                            l2391 02F3                              l2383 02DA                              l2375 02C8  
                            l2367 02BA                              l2279 0507                              l2199 0452  
                            l2447 03DB                              l2439 03CF                              l2463 046E  
                            l2393 02F9                              l2385 02E1                              l2377 02CC  
                            l2369 02BD                              l2641 04A4                              l2449 03F1  
                            l2465 0473                              l2457 045A                              l2395 0300  
                            l2387 02E5                              l2379 02D1                              l2643 0420  
                            l2467 0478                              l2459 0464                              l2389 02E9  
                            l2397 0306                              l2645 04CF                              l2469 047D  
                            l2399 030B                              l2647 0299                              l2649 0245  
                            u1400 0434                              u1401 0433                              u1410 0438  
                            u1411 0437                              u1420 043E                              u1500 038E  
                            u1421 043D                              u1501 038D                              u1350 0200  
                            u1430 0449                              u1510 0393                              u1351 01FF  
                            u1431 0448                              u1511 0392                              u1600 014B  
                            u1360 052C                              u1520 0405                              u1440 044D  
                            u1601 014A                              u1361 052B                              u1521 0404  
                            u1441 044C                              u1530 0520                              u1450 0452  
                            u1370 04E7                              u1531 051F                              u1451 0451  
                            u1371 04E6                              u1620 015D                              u1700 02D7  
                            u1460 0371                              u1380 04F2                              u1621 015C  
                            u1701 02D6                              u1461 0370                              u1381 04F1  
                            u1470 0375                              u1390 04FD                              u1615 014F  
                            u1471 0374                              u1391 04FC                              u1640 016E  
                            u1720 02E9                              u1480 037B                              u1560 0565  
                            u1641 016D                              u1721 02E8                              u1481 037A  
                            u1561 0564                              u1730 02F3                              u1490 038A  
                            u1570 0572                              u1635 015E                              u1731 02F2  
                            u1715 02DB                              u1491 0389                              u1571 0571  
                            u1660 0182                              u1580 012F                              u1661 0181  
                            u1645 016A                              u1581 012E                              u1670 0187  
                            u1590 013A                              u1750 0306                              u1671 0186  
                            u1655 0176                              u1591 0139                              u1751 0305  
                            u1735 02EF                              u1760 030B                              u1680 02C1  
                            u1761 030A                              u1745 02FA                              u1681 02C0  
                            u1690 02CC                              u1770 03DB                              u1691 02CB  
                            u1771 03DA                              u1780 03FD                              u1781 03FC  
                            _MODE 004A                              i1l52 0127                              i1l71 055C  
                            i1l98 05F6                              _TMR0 0001                              _Tick 003C  
                            _main 045A                              fp_u0 0028                              fp_u1 0029  
                            btemp 007E                              start 0012                __size_of_GPIO_Init 0016  
               ___bmul@multiplier 00A2                  ??_Scheduler_Init 00A6                             ??_ISR 0038  
                      _Clock_Init 05E9              __end_of_Clock_Normal 04FF              __end_of_Clock_Update 04B0  
                           ?_main 0070                   __end_of___awdiv 0191                   __end_of___awmod 0315  
                 __end_of___lldiv 01F9                   ___awdiv@divisor 00A0                   __end_of___llmod 036B  
                           i1l225 03B1                             i1l228 03C2                             i1l451 059E  
                           i1l461 01F8                             i1l647 036A                   ___awdiv@counter 00A4  
                           _PORTA 0005                             _PORTB 0006                             _PORTD 0008  
                           _TRISA 0085                             _TRISB 0086                             _TRISD 0088  
                           u90_20 01D2                             u90_21 01D1                             u90_25 01CE  
                           u91_25 01E2                             u92_20 01F0                             u92_21 01EF  
                           u93_20 031F                             u93_21 031E                             u86_20 01A3  
                           u86_21 01A2                             u94_25 0324                             u95_20 0333  
                           u95_21 0332                             u87_25 01A8                             u88_20 01B7  
                           u96_20 0345                             u88_21 01B6                             u96_21 0344  
                           u96_25 0341                             u89_25 01B9                             u97_25 0354  
                           u98_20 0362                             u98_21 0361                             u99_20 0590  
                           u99_21 058F                             _Clock 0040                  _ModeManager_Init 05EF  
                           _Tasks 05A5        __end_of_ModeManager_Update 042E                             fpbase 0027  
                __end_ofi1___bmul 059F                             pclath 000A                             status 0003  
                           wtemp0 007E                   __initialization 0015                 ??_Scheduler_Task1 00A5  
               ??_Scheduler_Task2 00A2                 ??_Scheduler_Task3 00A2                      __end_of_main 0485  
  Buttons_Update@Debounce_Counter 0048          ?_Display_Minutes_Setting 0070                            ??_main 00AA  
               __end_of_GPIO_Init 058A              __end_of_Display_Init 00B8                  ___llmod@dividend 0029  
                ___awdiv@dividend 00A2                 SSD_Display@Number 00A2                            u100_20 059D  
                          u100_21 059C                            i1l1701 01AF                            i1l2501 03A1  
                          i1l1711 01E0                            i1l1703 01B3                            i1l2503 03A3  
                          i1l1713 01E1                            i1l1705 01B7                            i1l1721 0315  
                          i1l2505 03A4                            i1l1715 01EA                            i1l1707 01C0  
                          i1l1731 0333                            i1l1723 031F                            i1l2291 00BB  
                          i1l2507 03B5                            i1l1709 01D2                            i1l1717 01F0  
                          i1l1733 0345                            i1l1725 0322                            i1l2293 0111  
                          i1l2285 00B8                            i1l2453 053F                            i1l2509 03B6  
                          i1l1735 0353                            i1l1727 032B                            i1l1751 0596  
                          i1l1743 058B                            i1l2295 0118                            i1l2455 054F  
                          i1l1737 035C                            i1l1729 032F                            i1l1753 0598  
                          i1l1745 058C                            i1l2297 011D                            i1l1739 0362  
                          i1l1755 059D                            i1l1747 0590                            i1l2299 0121  
                          i1l1749 0594                            i1l1695 0191                            i1l1697 01A3  
                          i1l1939 05F3                            i1l1699 01A6                            i1l2499 039D  
                          u154_20 0111                            u154_21 0110                            u155_20 0127  
                          u155_21 0126                            u185_20 03A1                            u185_21 03A0  
                          u186_20 03B5                            u186_21 03B4                        __i1fptable 0033  
                __end_of__fptable 0033             _EXTI_SettingButton_CB 05F3                            _Digit1 0046  
                          _Digit2 0045                            _Digit3 0044                            _Digit4 0043  
    __end_of_Display_Hour_Setting 05FB                            ___bmul 055D                         ??___awdiv 00A4  
                       ??___awmod 00A4                         ??___lldiv 007B                         ??___llmod 007C  
                      _Timer_Init 05C0                       ?_Clock_Init 0070                            _memset 04FF  
                ___awdiv@quotient 00A6                   ___awmod@divisor 00A0                __size_of_Timer0_CB 001E  
                 ___awmod@counter 00A4                     ??_Timer_Start 00A0                            fptable 0022  
                          fptotal 0006                            saved_w 007E           __end_of__initialization 001E  
               ?_Scheduler_Active 002D               ___bmul@multiplicand 00A0             __size_of_Clock_Normal 0024  
                    ?_SSD_Display 0070             __size_of_Clock_Update 002B                ??_Scheduler_Active 0031  
                  __pcstackCOMMON 0070                 ?_Scheduler_Update 0070                     __end_of_Tasks 05AE  
 __end_of_Display_Minutes_Setting 05FA                ??_Scheduler_Update 00A5                         ?i1___bmul 0070  
                     _ButtonsFlag 0049       __size_of_Clock_Hour_Setting 002C                    _OPTION_REGbits 0081  
         ??_Clock_Minutes_Setting 00A0                  i1___bmul@product 0071               __end_of_Timer_Start 05F9  
                      __pbssBANK0 003C                      _Clock_Normal 04DB               __size_of_Clock_Init 0006  
          ?_EXTI_SettingButton_CB 0070                      _Clock_Update 0485                 __end_of_Timer0_CB 055D  
        __end_of_ModeManager_Init 05F3                        __pmaintext 045A                           ?___bmul 00A0  
               Scheduler_Active@i 0037                        __pintentry 0004                       ?_Timer_Init 0070  
                         ?_memset 00A0                        ??i1___bmul 0071             __size_of_Display_Init 0079  
            _Display_Hour_Setting 05FA                        __stringtab 059F                   _Scheduler_Task1 05DD  
                 _Scheduler_Task2 05D7                   _Scheduler_Task3 05E3                 Scheduler_Update@i 00A5  
                         i1fpbase 0038                           _Display 004B                _ModeManager_Update 03FF  
                    _Display_Init 003F                   __size_of___bmul 0017                           ___awdiv 0128  
                         ___awmod 02BA                           ___lldiv 0191                           ___llmod 0315  
             ?_ModeManager_Update 0070                   __size_of_memset 0022                           __ptext1 05F7  
                         __ptext2 05C0                           __ptext3 03CF                           __ptext4 055D  
                         __ptext5 05D7                           __ptext6 05DD                           __ptext7 05E3  
                         __ptext8 0485                           __ptext9 04DB           __size_of_Display_Normal 001E  
             __size_of__i1fptable 000C           __size_of_Display_Update 002B                      __size_of_ISR 0032  
                     _Timer_Start 05F7                  ___awmod@dividend 00A2               i1___bmul@multiplier 0072  
           ?_Display_Hour_Setting 0070                           clrloop0 05D0                         _GPIO_Init 0574  
            end_of_initialization 001E              ??_ModeManager_Update 00A0  __size_of_Display_Minutes_Setting 0001  
             __size_of_Timer_Init 000F                           memset@c 00A0                           memset@n 00A2  
                         memset@p 00A4                   ___lldiv@divisor 0073                   ___lldiv@counter 0024  
            __size_of_SSD_Display 005F                      ??_Clock_Init 00A0           __size_of_Scheduler_Init 0010  
         __end_of_Scheduler_Task1 05E3           __end_of_Scheduler_Task2 05DD           __end_of_Scheduler_Task3 05E9  
                      ?_GPIO_Init 0070                __end_of_Clock_Init 05EF                     _DigitSelector 0047  
                  __end_of___bmul 0574                    __end_of_memset 0521         __size_of_Scheduler_Active 0070  
               __size_ofi1___bmul 0015               start_initialization 0015            ??_Display_Hour_Setting 00A0  
                     __end_of_ISR 03CF         __size_of_Scheduler_Update 0030           ??_EXTI_SettingButton_CB 0070  
  __size_of_Clock_Minutes_Setting 0032     __end_of_Clock_Minutes_Setting 039D                   ___llmod@divisor 0025  
                 ___llmod@counter 007D                         _Task_Flag 0052                         _Timer0_CB 053F  
               ?_ModeManager_Init 0070                          ??___bmul 00A1                      ??_Timer_Init 00A0  
              ??_ModeManager_Init 00A0                          ??_memset 00A4        __end_of_Clock_Hour_Setting 045A  
                  _Display_Normal 0521                    _Display_Update 04B0                __end_of__i1fptable 003F  
                       ___latbits 0002                     __pcstackBANK0 0020                     __pcstackBANK1 00A0  
                ?_Scheduler_Task1 0070                  ?_Scheduler_Task2 0070                  ?_Scheduler_Task3 0070  
               __size_of__fptable 0011           _Display_Minutes_Setting 05F9                       ??_GPIO_Init 00A0  
              __end_of_Timer_Init 05CF                        ?_Timer0_CB 0070        __end_of_Interrupt_CbStruct 05B0  
                       __pfunctab 0022                          ?___awdiv 00A0                          ?___awmod 00A0  
                        ?___lldiv 0073                          ?___llmod 0025            __end_of_Display_Normal 053F  
               _SSD_DigitSelector 01F9            __end_of_Display_Update 04DB                         __pstrings 059F  
              ?_SSD_DigitSelector 0070                      ?_Timer_Start 0070                    _Scheduler_Init 05B0  
             ??_SSD_DigitSelector 00A0                 interrupt_function 0004                         clear_ram0 05CF  
           i1___bmul@multiplicand 0070         __end_of_SSD_DigitSelector 025B                   ?_Display_Normal 0070  
                 ?_Display_Update 0070            __end_of_Scheduler_Init 05C0                          i1___bmul 058A  
                     __stringbase 05A4                  _Scheduler_Active 00B8         ??_Display_Minutes_Setting 00A0  
               _Debounce_UpButton 004F                  _Scheduler_Update 03CF                          i1fptable 0033  
                        i1fptotal 0004       __size_of_ModeManager_Update 002F                     ??_SSD_Display 00A0  
                     ??_Timer0_CB 007E                  __size_of___awdiv 0069                  __size_of___awmod 005B  
                __size_of___lldiv 0068                  __size_of___llmod 0056                   ?_Scheduler_Init 0070  
              __end_of__stringtab 05A5                          __fptable 0022                          __ptext10 036B  
                        __ptext11 042E                          __ptext20 04FF                          __ptext12 03FF  
                        __ptext21 05EF                          __ptext13 04B0                          __ptext30 058A  
                        __ptext22 0574                          __ptext14 0521                          __ptext31 0315  
                        __ptext23 003F                          __ptext15 025B                          __ptext32 0191  
                        __ptext24 02BA                          __ptext16 01F9                          __ptext33 05F3  
                        __ptext25 0128                          __ptext17 05F9                          __ptext26 05E9  
                        __ptext18 05FA                          __ptext27 039D                          __ptext19 05B0  
                        __ptext28 053F                          __ptext29 00B8    __size_of_EXTI_SettingButton_CB 0004  
                   ?_Clock_Normal 0070     __end_of_EXTI_SettingButton_CB 05F7                     ?_Clock_Update 0070  
                   __size_of_main 002B        __size_of_SSD_DigitSelector 0062               __end_of_SSD_Display 02BA  
                      _INTCONbits 000B         __size_of_ModeManager_Init 0004              __size_of_Timer_Start 0002  
                        memset@p1 00A5                      fp__Timer0_CB 003C     __size_of_Display_Hour_Setting 0001  
              _Clock_Hour_Setting 042E                    ??_Clock_Normal 00A0                    ??_Clock_Update 00A0  
                        intlevel1 0022             _Clock_Minutes_Setting 036B                  ___lldiv@dividend 0077  
             ?_Clock_Hour_Setting 0070                         stringcode 059F                     ?_Display_Init 0070  
            ??_Clock_Hour_Setting 00A0                _Interrupt_CbStruct 05AE       Scheduler_Active@System_Tick 002D  
                ___lldiv@quotient 0020                          stringdir 059F                          stringtab 059F  
        __size_of_Scheduler_Task1 0006          __size_of_Scheduler_Task2 0006          __size_of_Scheduler_Task3 0006  
              fp__Scheduler_Task1 002D                fp__Scheduler_Task2 0030                fp__Scheduler_Task3 002A  
        __end_of_Scheduler_Active 0128               _Debounce_DownButton 004C          fp__EXTI_SettingButton_CB 0039  
                ??_Display_Normal 00A3                  ??_Display_Update 00A3                    ??_Display_Init 00A8  
                     _SSD_Display 025B          __end_of_Scheduler_Update 03FF  
